
Fuocostep.elf:     file format elf32-avr

Sections:
Idx Name          Size      VMA       LMA       File off  Algn
  0 .data         00000090  00800100  000028e2  00002976  2**0
                  CONTENTS, ALLOC, LOAD, DATA
  1 .text         000028e2  00000000  00000000  00000094  2**1
                  CONTENTS, ALLOC, LOAD, READONLY, CODE
  2 .bss          00000007  00800190  00800190  00002a06  2**0
                  ALLOC
  3 .comment      00000041  00000000  00000000  00002a06  2**0
                  CONTENTS, READONLY
  4 .note.gnu.avr.deviceinfo 00000040  00000000  00000000  00002a48  2**2
                  CONTENTS, READONLY
  5 .debug_aranges 00000120  00000000  00000000  00002a88  2**3
                  CONTENTS, READONLY, DEBUGGING
  6 .debug_info   0000074a  00000000  00000000  00002ba8  2**0
                  CONTENTS, READONLY, DEBUGGING
  7 .debug_abbrev 00000656  00000000  00000000  000032f2  2**0
                  CONTENTS, READONLY, DEBUGGING
  8 .debug_line   00000767  00000000  00000000  00003948  2**0
                  CONTENTS, READONLY, DEBUGGING
  9 .debug_str    00000291  00000000  00000000  000040af  2**0
                  CONTENTS, READONLY, DEBUGGING

Disassembly of section .text:

00000000 <__vectors>:
       0:	0c 94 23 02 	jmp	0x446	; 0x446 <wdt_init>
       4:	0c 94 4c 02 	jmp	0x498	; 0x498 <__bad_interrupt>
       8:	0c 94 4c 02 	jmp	0x498	; 0x498 <__bad_interrupt>
       c:	0c 94 4c 02 	jmp	0x498	; 0x498 <__bad_interrupt>
      10:	0c 94 4c 02 	jmp	0x498	; 0x498 <__bad_interrupt>
      14:	0c 94 5e 07 	jmp	0xebc	; 0xebc <__vector_5>
      18:	0c 94 4c 02 	jmp	0x498	; 0x498 <__bad_interrupt>
      1c:	0c 94 4c 02 	jmp	0x498	; 0x498 <__bad_interrupt>
      20:	0c 94 4c 02 	jmp	0x498	; 0x498 <__bad_interrupt>
      24:	0c 94 4c 02 	jmp	0x498	; 0x498 <__bad_interrupt>
      28:	0c 94 4c 02 	jmp	0x498	; 0x498 <__bad_interrupt>
      2c:	0c 94 43 07 	jmp	0xe86	; 0xe86 <__vector_11>
      30:	0c 94 4c 02 	jmp	0x498	; 0x498 <__bad_interrupt>
      34:	0c 94 4c 02 	jmp	0x498	; 0x498 <__bad_interrupt>
      38:	0c 94 4c 02 	jmp	0x498	; 0x498 <__bad_interrupt>
      3c:	0c 94 4c 02 	jmp	0x498	; 0x498 <__bad_interrupt>
      40:	0c 94 4c 02 	jmp	0x498	; 0x498 <__bad_interrupt>
      44:	0c 94 4c 02 	jmp	0x498	; 0x498 <__bad_interrupt>
      48:	0c 94 4c 02 	jmp	0x498	; 0x498 <__bad_interrupt>
      4c:	0c 94 4c 02 	jmp	0x498	; 0x498 <__bad_interrupt>
      50:	0c 94 4c 02 	jmp	0x498	; 0x498 <__bad_interrupt>
      54:	0c 94 4c 02 	jmp	0x498	; 0x498 <__bad_interrupt>
      58:	0c 94 4c 02 	jmp	0x498	; 0x498 <__bad_interrupt>
      5c:	0c 94 4c 02 	jmp	0x498	; 0x498 <__bad_interrupt>
      60:	0c 94 4c 02 	jmp	0x498	; 0x498 <__bad_interrupt>
      64:	0c 94 4c 02 	jmp	0x498	; 0x498 <__bad_interrupt>

00000068 <__trampolines_end>:
      68:	63 64       	ori	r22, 0x43	; 67
      6a:	69 6e       	ori	r22, 0xE9	; 233
      6c:	6f 70       	andi	r22, 0x0F	; 15
      6e:	73 75       	andi	r23, 0x53	; 83
      70:	78 58       	subi	r23, 0x88	; 136
      72:	5b 00       	.word	0x005b	; ????

00000074 <__c.2428>:
      74:	0a 0d 00                                            ...

00000077 <__c.2426>:
      77:	1b 5b 31 44 00                                      .[1D.

0000007c <__c.2424>:
      7c:	20 00                                                .

0000007e <__c.2422>:
      7e:	1b 5b 31 44 00                                      .[1D.

00000083 <__c.2517>:
      83:	0d 0a 00                                            ...

00000086 <__c.2512>:
      86:	0d 0a 41 75 73 77 61 68 6c 3a 20 28 45 29 2d 41     ..Auswahl: (E)-A
      96:	6e 7a c3 bc 6e 64 65 72 2c 20 28 54 29 61 6c 6f     nz..nder, (T)alo
      a6:	6e 2c 20 41 62 62 72 75 63 68 20 6d 69 74 20 61     n, Abbruch mit a
      b6:	6e 64 65 72 65 72 20 54 61 73 74 65 3a 20 00        nderer Taste: .

000000c5 <__c.2510>:
      c5:	45 2d 41 4e 5a c3 9c 4e 44 45 52 20 28 32 30 20     E-ANZ..NDER (20 
      d5:	6d 73 29 00                                         ms).

000000d9 <__c.2508>:
      d9:	54 41 4c 4f 4e 20 28 32 20 73 29 00                 TALON (2 s).

000000e5 <__c.2506>:
      e5:	0d 0a 44 65 72 7a 65 69 74 20 65 69 6e 67 65 73     ..Derzeit einges
      f5:	74 65 6c 6c 74 65 73 20 41 6e 7a c3 bc 6e 64 6d     telltes Anz..ndm
     105:	69 74 74 65 6c 0d 0a 3d 3d 3d 3d 3d 3d 3d 3d 3d     ittel..=========
     115:	3d 3d 3d 3d 3d 3d 3d 3d 3d 3d 3d 3d 3d 3d 3d 3d     ================
     125:	3d 3d 3d 3d 3d 3d 3d 3d 3d 0d 0a 0a 00              =========....

00000132 <__c.2497>:
     132:	0d 0a 0a 00                                         ....

00000136 <__c.2492>:
     136:	0d 0a 0a 00                                         ....

0000013a <__c.2490>:
     13a:	2c 20 00                                            , .

0000013d <__c.2488>:
     13d:	54 72 69 67 67 65 72 00                             Trigger.

00000145 <__c.2485>:
     145:	46 69 78 65 64 3a 20 00                             Fixed: .

0000014d <__c.2483>:
     14d:	56 61 72 69 61 62 6c 65 0d 0a 20 20 20 20 20 20     Variable..      
     15d:	20 20 20 20 20 20 20 00                                    .

00000165 <__c.2481>:
     165:	20 20 20 20 20 20 20 20 20 20 20 00                            .

00000171 <__c.2478>:
     171:	20 53 20 20 20 20 20 20 20 20 20 20 20 46 69 78      S           Fix
     181:	65 64 3a 20 54 72 69 67 67 65 72 0d 0a 0a 00        ed: Trigger....

00000190 <__c.2476>:
     190:	0d 0a 0a 53 63 68 61 6c 74 65 72 70 6f 73 2e 20     ...Schalterpos. 
     1a0:	46 65 73 74 2f 56 61 72 69 61 62 65 6c 0a 0d 00     Fest/Variabel...

000001b0 <__c.2474>:
     1b0:	53 00                                               S.

000001b2 <__c.2472>:
     1b2:	44 65 72 7a 65 69 74 69 67 65 20 53 63 68 61 6c     Derzeitige Schal
     1c2:	74 65 72 70 6f 73 69 74 69 6f 6e 3a 20 00           terposition: .

000001d0 <__c.2470>:
     1d0:	3d 3d 3d 3d 3d 3d 3d 3d 3d 3d 3d 3d 3d 3d 3d 3d     ================
     1e0:	3d 3d 3d 3d 3d 3d 0a 0d 00                          ======...

000001e9 <__c.2468>:
     1e9:	0a 0d 41 6b 74 75 65 6c 6c 65 20 45 69 6e 73 74     ..Aktuelle Einst
     1f9:	65 6c 6c 75 6e 67 65 6e 0a 0d 00                    ellungen...

00000204 <__c.2459>:
     204:	0d 0a 00                                            ...

00000207 <__c.2456>:
     207:	0d 0a 00                                            ...

0000020a <__c.2451>:
     20a:	0d 0a 53 74 65 70 70 69 6e 74 65 72 76 61 6c 20     ..Steppinterval 
     21a:	28 66 29 65 73 74 20 6f 64 65 72 20 28 76 29 61     (f)est oder (v)a
     22a:	72 69 61 62 65 6c 3a 20 00                          riabel: .

00000233 <__c.2447>:
     233:	0d 0a 0a 00                                         ....

00000237 <__c.2445>:
     237:	54 72 69 67 67 65 72 00                             Trigger.

0000023f <__c.2443>:
     23f:	0d 0a 53 65 74 7a 65 20 49 6e 74 65 72 76 61 6c     ..Setze Interval
     24f:	6c 20 61 75 66 3a 20 00                             l auf: .

00000257 <__c.2441>:
     257:	0d 0a 4e 65 75 65 72 20 57 65 72 74 20 28 53 74     ..Neuer Wert (St
     267:	65 70 3a 20 30 3a 30 30 2e 30 30 20 2d 20 39 3a     ep: 0:00.00 - 9:
     277:	35 39 2e 39 39 2c 20 74 20 66 c3 bc 72 20 67 65     59.99, t f..r ge
     287:	74 72 69 67 67 65 72 74 65 6e 20 42 65 74 72 69     triggerten Betri
     297:	65 62 29 3a 20 00                                   eb): .

0000029d <__c.2439>:
     29d:	0d 0a 49 6e 74 65 72 76 61 6c 6c 6e 75 6d 6d 65     ..Intervallnumme
     2ad:	72 20 28 31 2d 31 35 2c 20 30 20 6e 69 63 68 74     r (1-15, 0 nicht
     2bd:	20 c3 a4 6e 64 65 72 62 61 72 29 3a 20 00            ..nderbar): .

000002cb <__c.2436>:
     2cb:	0d 0a 00                                            ...

000002ce <__c.2431>:
     2ce:	4d 6f 64 75 73 20 76 65 72 c3 a4 6e 64 65 72 6e     Modus ver..ndern
     2de:	20 28 4d 29 2c 20 49 6e 74 65 72 76 61 6c 6c 20      (M), Intervall 
     2ee:	76 65 72 c3 a4 6e 64 65 72 6e 20 28 49 29 20 6f     ver..ndern (I) o
     2fe:	64 65 72 20 61 62 62 72 65 63 68 65 6e 20 28 61     der abbrechen (a
     30e:	6e 64 65 72 65 20 54 61 73 74 65 29 3f 20 00        ndere Taste)? .

0000031d <__c.2429>:
     31d:	0d 0a 0a 00                                         ....

00000321 <__c.2424>:
     321:	0d 0a 00                                            ...

00000324 <__c.2422>:
     324:	54 72 69 67 67 65 72 00                             Trigger.

0000032c <__c.2420>:
     32c:	29 3a 20 00                                         ): .

00000330 <__c.2418>:
     330:	2d 00                                               -.

00000332 <__c.2416>:
     332:	20 28 00                                             (.

00000335 <__c.2413>:
     335:	20 30 20 28 53 74 61 72 74 29 3a 20 54 72 69 67      0 (Start): Trig
     345:	67 65 72 0d 0a 00                                   ger...

0000034b <__c.2411>:
     34b:	56 61 72 69 61 62 6c 65 20 49 6e 74 65 72 76 61     Variable Interva
     35b:	6c 6c 65 3a 0d 0a 00                                lle:...

00000362 <__c.2409>:
     362:	0d 0a 0a 00                                         ....

00000366 <__c.2407>:
     366:	46 65 73 74 65 73 20 49 6e 74 65 72 76 61 6c 6c     Festes Intervall
     376:	3a 20 00                                            : .

00000379 <__c.2405>:
     379:	3a 0d 0a 00                                         :...

0000037d <__c.2403>:
     37d:	0d 0a 0a 0a 0a 00                                   ......

00000383 <__c.2401>:
     383:	46 65 73 74 65 73 20 49 6e 74 65 72 76 61 6c 6c     Festes Intervall
     393:	20 28 6e 69 63 68 74 20 c3 a4 6e 64 65 72 62 61      (nicht ..nderba
     3a3:	72 29 3a 20 54 72 69 67 67 65 72 00                 r): Trigger.

000003af <__c.2399>:
     3af:	53 3a 0d 0a 00                                      S:...

000003b4 <__c.2397>:
     3b4:	0a 0d 45 69 6e 73 74 65 6c 6c 75 6e 67 65 6e 20     ..Einstellungen 
     3c4:	64 65 72 20 64 65 72 7a 65 69 74 69 67 65 6e 20     der derzeitigen 
     3d4:	53 63 68 61 6c 74 65 72 73 74 65 6c 6c 75 6e 67     Schalterstellung
     3e4:	20 00                                                .

000003e6 <__c.2362>:
     3e6:	20 00                                                .

000003e8 <__c.2349>:
     3e8:	1b 5d 30 3b 46 55 4f 43 4f 20 53 54 45 50 07 00     .]0;FUOCO STEP..

000003f8 <__c.2347>:
     3f8:	1b 5b 33 4a 00                                      .[3J.

000003fd <__c.2345>:
     3fd:	1b 5b 30 3b 30 48 00                                .[0;0H.

00000404 <__c.2343>:
     404:	1b 5b 32 4a 00                                      .[2J.

00000409 <__c.2363>:
     409:	49 6e 76 61 6c 69 64 20 46 6f 72 6d 61 74 00        Invalid Format.

00000418 <__c.2353>:
     418:	49 6e 76 61 6c 69 64 20 63 68 61 72 20 69 6e 20     Invalid char in 
     428:	74 69 6d 65 73 74 72 69 6e 67 0a 00                 timestring..

00000434 <__c.2441>:
     434:	2d 00                                               -.

00000436 <__c.2436>:
     436:	30 00                                               0.

00000438 <__c.2369>:
     438:	0a 0d 00                                            ...

0000043b <__c.2364>:
     43b:	1b 5b 31 44 20 1b 5b 31 44 00 00                    .[1D .[1D..

00000446 <wdt_init>:
     446:	14 be       	out	0x34, r1	; 52
     448:	0f b6       	in	r0, 0x3f	; 63
     44a:	f8 94       	cli
     44c:	a8 95       	wdr
     44e:	80 91 60 00 	lds	r24, 0x0060	; 0x800060 <__TEXT_REGION_LENGTH__+0x7e0060>
     452:	88 61       	ori	r24, 0x18	; 24
     454:	80 93 60 00 	sts	0x0060, r24	; 0x800060 <__TEXT_REGION_LENGTH__+0x7e0060>
     458:	10 92 60 00 	sts	0x0060, r1	; 0x800060 <__TEXT_REGION_LENGTH__+0x7e0060>
     45c:	0f be       	out	0x3f, r0	; 63
     45e:	11 24       	eor	r1, r1
     460:	1f be       	out	0x3f, r1	; 63
     462:	cf ef       	ldi	r28, 0xFF	; 255
     464:	d8 e0       	ldi	r29, 0x08	; 8
     466:	de bf       	out	0x3e, r29	; 62
     468:	cd bf       	out	0x3d, r28	; 61

0000046a <__do_copy_data>:
     46a:	11 e0       	ldi	r17, 0x01	; 1
     46c:	a0 e0       	ldi	r26, 0x00	; 0
     46e:	b1 e0       	ldi	r27, 0x01	; 1
     470:	e2 ee       	ldi	r30, 0xE2	; 226
     472:	f8 e2       	ldi	r31, 0x28	; 40
     474:	02 c0       	rjmp	.+4      	; 0x47a <__do_copy_data+0x10>
     476:	05 90       	lpm	r0, Z+
     478:	0d 92       	st	X+, r0
     47a:	a0 39       	cpi	r26, 0x90	; 144
     47c:	b1 07       	cpc	r27, r17
     47e:	d9 f7       	brne	.-10     	; 0x476 <__do_copy_data+0xc>

00000480 <__do_clear_bss>:
     480:	21 e0       	ldi	r18, 0x01	; 1
     482:	a0 e9       	ldi	r26, 0x90	; 144
     484:	b1 e0       	ldi	r27, 0x01	; 1
     486:	01 c0       	rjmp	.+2      	; 0x48a <.do_clear_bss_start>

00000488 <.do_clear_bss_loop>:
     488:	1d 92       	st	X+, r1

0000048a <.do_clear_bss_start>:
     48a:	a7 39       	cpi	r26, 0x97	; 151
     48c:	b2 07       	cpc	r27, r18
     48e:	e1 f7       	brne	.-8      	; 0x488 <.do_clear_bss_loop>
     490:	0e 94 a9 03 	call	0x752	; 0x752 <main>
     494:	0c 94 6f 14 	jmp	0x28de	; 0x28de <_exit>

00000498 <__bad_interrupt>:
     498:	0c 94 00 00 	jmp	0	; 0x0 <__vectors>

0000049c <adc_deinit>:
     49c:	10 92 7c 00 	sts	0x007C, r1	; 0x80007c <__TEXT_REGION_LENGTH__+0x7e007c>
     4a0:	10 92 7a 00 	sts	0x007A, r1	; 0x80007a <__TEXT_REGION_LENGTH__+0x7e007a>
     4a4:	08 95       	ret

000004a6 <adc_init>:
     4a6:	80 b7       	in	r24, 0x30	; 48
     4a8:	80 68       	ori	r24, 0x80	; 128
     4aa:	80 bf       	out	0x30, r24	; 48
     4ac:	80 91 7c 00 	lds	r24, 0x007C	; 0x80007c <__TEXT_REGION_LENGTH__+0x7e007c>
     4b0:	84 64       	ori	r24, 0x44	; 68
     4b2:	80 93 7c 00 	sts	0x007C, r24	; 0x80007c <__TEXT_REGION_LENGTH__+0x7e007c>
     4b6:	80 91 7a 00 	lds	r24, 0x007A	; 0x80007a <__TEXT_REGION_LENGTH__+0x7e007a>
     4ba:	85 60       	ori	r24, 0x05	; 5
     4bc:	80 93 7a 00 	sts	0x007A, r24	; 0x80007a <__TEXT_REGION_LENGTH__+0x7e007a>
     4c0:	80 91 7a 00 	lds	r24, 0x007A	; 0x80007a <__TEXT_REGION_LENGTH__+0x7e007a>
     4c4:	80 68       	ori	r24, 0x80	; 128
     4c6:	80 93 7a 00 	sts	0x007A, r24	; 0x80007a <__TEXT_REGION_LENGTH__+0x7e007a>
     4ca:	80 91 7a 00 	lds	r24, 0x007A	; 0x80007a <__TEXT_REGION_LENGTH__+0x7e007a>
     4ce:	80 64       	ori	r24, 0x40	; 64
     4d0:	80 93 7a 00 	sts	0x007A, r24	; 0x80007a <__TEXT_REGION_LENGTH__+0x7e007a>
     4d4:	80 91 7a 00 	lds	r24, 0x007A	; 0x80007a <__TEXT_REGION_LENGTH__+0x7e007a>
     4d8:	86 fd       	sbrc	r24, 6
     4da:	fc cf       	rjmp	.-8      	; 0x4d4 <adc_init+0x2e>
     4dc:	80 91 78 00 	lds	r24, 0x0078	; 0x800078 <__TEXT_REGION_LENGTH__+0x7e0078>
     4e0:	90 91 79 00 	lds	r25, 0x0079	; 0x800079 <__TEXT_REGION_LENGTH__+0x7e0079>
     4e4:	08 95       	ret

000004e6 <adc_read>:
     4e6:	cf 93       	push	r28
     4e8:	df 93       	push	r29
     4ea:	cd b7       	in	r28, 0x3d	; 61
     4ec:	de b7       	in	r29, 0x3e	; 62
     4ee:	68 97       	sbiw	r28, 0x18	; 24
     4f0:	0f b6       	in	r0, 0x3f	; 63
     4f2:	f8 94       	cli
     4f4:	de bf       	out	0x3e, r29	; 62
     4f6:	0f be       	out	0x3f, r0	; 63
     4f8:	cd bf       	out	0x3d, r28	; 61
     4fa:	98 e1       	ldi	r25, 0x18	; 24
     4fc:	e0 e0       	ldi	r30, 0x00	; 0
     4fe:	f1 e0       	ldi	r31, 0x01	; 1
     500:	de 01       	movw	r26, r28
     502:	11 96       	adiw	r26, 0x01	; 1
     504:	01 90       	ld	r0, Z+
     506:	0d 92       	st	X+, r0
     508:	9a 95       	dec	r25
     50a:	e1 f7       	brne	.-8      	; 0x504 <adc_read+0x1e>
     50c:	90 91 7c 00 	lds	r25, 0x007C	; 0x80007c <__TEXT_REGION_LENGTH__+0x7e007c>
     510:	98 7f       	andi	r25, 0xF8	; 248
     512:	90 93 7c 00 	sts	0x007C, r25	; 0x80007c <__TEXT_REGION_LENGTH__+0x7e007c>
     516:	90 91 7c 00 	lds	r25, 0x007C	; 0x80007c <__TEXT_REGION_LENGTH__+0x7e007c>
     51a:	89 2b       	or	r24, r25
     51c:	80 93 7c 00 	sts	0x007C, r24	; 0x80007c <__TEXT_REGION_LENGTH__+0x7e007c>
     520:	28 e0       	ldi	r18, 0x08	; 8
     522:	90 e0       	ldi	r25, 0x00	; 0
     524:	80 e0       	ldi	r24, 0x00	; 0
     526:	30 91 7a 00 	lds	r19, 0x007A	; 0x80007a <__TEXT_REGION_LENGTH__+0x7e007a>
     52a:	30 64       	ori	r19, 0x40	; 64
     52c:	30 93 7a 00 	sts	0x007A, r19	; 0x80007a <__TEXT_REGION_LENGTH__+0x7e007a>
     530:	30 91 7a 00 	lds	r19, 0x007A	; 0x80007a <__TEXT_REGION_LENGTH__+0x7e007a>
     534:	36 fd       	sbrc	r19, 6
     536:	fc cf       	rjmp	.-8      	; 0x530 <adc_read+0x4a>
     538:	40 91 78 00 	lds	r20, 0x0078	; 0x800078 <__TEXT_REGION_LENGTH__+0x7e0078>
     53c:	50 91 79 00 	lds	r21, 0x0079	; 0x800079 <__TEXT_REGION_LENGTH__+0x7e0079>
     540:	84 0f       	add	r24, r20
     542:	95 1f       	adc	r25, r21
     544:	21 50       	subi	r18, 0x01	; 1
     546:	79 f7       	brne	.-34     	; 0x526 <adc_read+0x40>
     548:	9c 01       	movw	r18, r24
     54a:	83 e0       	ldi	r24, 0x03	; 3
     54c:	36 95       	lsr	r19
     54e:	27 95       	ror	r18
     550:	8a 95       	dec	r24
     552:	e1 f7       	brne	.-8      	; 0x54c <adc_read+0x66>
     554:	fe 01       	movw	r30, r28
     556:	31 96       	adiw	r30, 0x01	; 1
     558:	80 e0       	ldi	r24, 0x00	; 0
     55a:	41 91       	ld	r20, Z+
     55c:	51 91       	ld	r21, Z+
     55e:	24 17       	cp	r18, r20
     560:	35 07       	cpc	r19, r21
     562:	20 f0       	brcs	.+8      	; 0x56c <adc_read+0x86>
     564:	8f 5f       	subi	r24, 0xFF	; 255
     566:	8c 30       	cpi	r24, 0x0C	; 12
     568:	c1 f7       	brne	.-16     	; 0x55a <adc_read+0x74>
     56a:	80 e0       	ldi	r24, 0x00	; 0
     56c:	68 96       	adiw	r28, 0x18	; 24
     56e:	0f b6       	in	r0, 0x3f	; 63
     570:	f8 94       	cli
     572:	de bf       	out	0x3e, r29	; 62
     574:	0f be       	out	0x3f, r0	; 63
     576:	cd bf       	out	0x3d, r28	; 61
     578:	df 91       	pop	r29
     57a:	cf 91       	pop	r28
     57c:	08 95       	ret

0000057e <eeread>:
     57e:	f9 99       	sbic	0x1f, 1	; 31
     580:	fe cf       	rjmp	.-4      	; 0x57e <eeread>
     582:	92 bd       	out	0x22, r25	; 34
     584:	81 bd       	out	0x21, r24	; 33
     586:	f8 9a       	sbi	0x1f, 0	; 31
     588:	80 b5       	in	r24, 0x20	; 32
     58a:	12 bc       	out	0x22, r1	; 34
     58c:	11 bc       	out	0x21, r1	; 33
     58e:	08 95       	ret

00000590 <eewrite>:
     590:	f9 99       	sbic	0x1f, 1	; 31
     592:	fe cf       	rjmp	.-4      	; 0x590 <eewrite>
     594:	72 bd       	out	0x22, r23	; 34
     596:	61 bd       	out	0x21, r22	; 33
     598:	80 bd       	out	0x20, r24	; 32
     59a:	fa 9a       	sbi	0x1f, 2	; 31
     59c:	f9 9a       	sbi	0x1f, 1	; 31
     59e:	12 bc       	out	0x22, r1	; 34
     5a0:	11 bc       	out	0x21, r1	; 33
     5a2:	08 95       	ret

000005a4 <eeread16>:
     5a4:	1f 93       	push	r17
     5a6:	cf 93       	push	r28
     5a8:	df 93       	push	r29
     5aa:	ec 01       	movw	r28, r24
     5ac:	0e 94 bf 02 	call	0x57e	; 0x57e <eeread>
     5b0:	18 2f       	mov	r17, r24
     5b2:	ce 01       	movw	r24, r28
     5b4:	01 96       	adiw	r24, 0x01	; 1
     5b6:	0e 94 bf 02 	call	0x57e	; 0x57e <eeread>
     5ba:	91 2f       	mov	r25, r17
     5bc:	df 91       	pop	r29
     5be:	cf 91       	pop	r28
     5c0:	1f 91       	pop	r17
     5c2:	08 95       	ret

000005c4 <eewrite16>:
     5c4:	1f 93       	push	r17
     5c6:	cf 93       	push	r28
     5c8:	df 93       	push	r29
     5ca:	18 2f       	mov	r17, r24
     5cc:	eb 01       	movw	r28, r22
     5ce:	89 2f       	mov	r24, r25
     5d0:	0e 94 c8 02 	call	0x590	; 0x590 <eewrite>
     5d4:	be 01       	movw	r22, r28
     5d6:	6f 5f       	subi	r22, 0xFF	; 255
     5d8:	7f 4f       	sbci	r23, 0xFF	; 255
     5da:	81 2f       	mov	r24, r17
     5dc:	df 91       	pop	r29
     5de:	cf 91       	pop	r28
     5e0:	1f 91       	pop	r17
     5e2:	0c 94 c8 02 	jmp	0x590	; 0x590 <eewrite>

000005e6 <led_yellow_on>:
     5e6:	41 9a       	sbi	0x08, 1	; 8
     5e8:	08 95       	ret

000005ea <led_yellow_toggle>:
     5ea:	82 e0       	ldi	r24, 0x02	; 2
     5ec:	86 b9       	out	0x06, r24	; 6
     5ee:	08 95       	ret

000005f0 <led_yellow_off>:
     5f0:	41 98       	cbi	0x08, 1	; 8
     5f2:	08 95       	ret

000005f4 <led_red_on>:
     5f4:	5c 9a       	sbi	0x0b, 4	; 11
     5f6:	08 95       	ret

000005f8 <led_red_toggle>:
     5f8:	80 e1       	ldi	r24, 0x10	; 16
     5fa:	89 b9       	out	0x09, r24	; 9
     5fc:	08 95       	ret

000005fe <led_red_off>:
     5fe:	5c 98       	cbi	0x0b, 4	; 11
     600:	08 95       	ret

00000602 <led_green_on>:
     602:	40 9a       	sbi	0x08, 0	; 8
     604:	08 95       	ret

00000606 <led_green_toggle>:
     606:	81 e0       	ldi	r24, 0x01	; 1
     608:	86 b9       	out	0x06, r24	; 6
     60a:	08 95       	ret

0000060c <led_green_off>:
     60c:	40 98       	cbi	0x08, 0	; 8
     60e:	08 95       	ret

00000610 <led_orange_on>:
     610:	42 9a       	sbi	0x08, 2	; 8
     612:	08 95       	ret

00000614 <led_orange_toggle>:
     614:	84 e0       	ldi	r24, 0x04	; 4
     616:	86 b9       	out	0x06, r24	; 6
     618:	08 95       	ret

0000061a <led_orange_off>:
     61a:	42 98       	cbi	0x08, 2	; 8
     61c:	08 95       	ret

0000061e <leds_off>:
     61e:	42 98       	cbi	0x08, 2	; 8
     620:	40 98       	cbi	0x08, 0	; 8
     622:	5c 98       	cbi	0x0b, 4	; 11
     624:	41 98       	cbi	0x08, 1	; 8
     626:	08 95       	ret

00000628 <leds_on>:
     628:	42 9a       	sbi	0x08, 2	; 8
     62a:	40 9a       	sbi	0x08, 0	; 8
     62c:	5c 9a       	sbi	0x0b, 4	; 11
     62e:	41 9a       	sbi	0x08, 1	; 8
     630:	08 95       	ret

00000632 <leds_status>:
     632:	86 b1       	in	r24, 0x06	; 6
     634:	86 95       	lsr	r24
     636:	81 70       	andi	r24, 0x01	; 1
     638:	30 99       	sbic	0x06, 0	; 6
     63a:	82 60       	ori	r24, 0x02	; 2
     63c:	32 99       	sbic	0x06, 2	; 6
     63e:	84 60       	ori	r24, 0x04	; 4
     640:	4c 99       	sbic	0x09, 4	; 9
     642:	88 60       	ori	r24, 0x08	; 8
     644:	08 95       	ret

00000646 <led_init>:
     646:	0e 94 f8 02 	call	0x5f0	; 0x5f0 <led_yellow_off>
     64a:	39 9a       	sbi	0x07, 1	; 7
     64c:	0e 94 ff 02 	call	0x5fe	; 0x5fe <led_red_off>
     650:	54 9a       	sbi	0x0a, 4	; 10
     652:	0e 94 06 03 	call	0x60c	; 0x60c <led_green_off>
     656:	38 9a       	sbi	0x07, 0	; 7
     658:	0e 94 0d 03 	call	0x61a	; 0x61a <led_orange_off>
     65c:	3a 9a       	sbi	0x07, 2	; 7
     65e:	08 95       	ret

00000660 <sr_init>:
     660:	43 9a       	sbi	0x08, 3	; 8
     662:	23 9a       	sbi	0x04, 3	; 4
     664:	3b 9a       	sbi	0x07, 3	; 7
     666:	22 9a       	sbi	0x04, 2	; 4
     668:	25 9a       	sbi	0x04, 5	; 4
     66a:	2b 98       	cbi	0x05, 3	; 5
     66c:	2a 98       	cbi	0x05, 2	; 5
     66e:	2d 98       	cbi	0x05, 5	; 5
     670:	93 e0       	ldi	r25, 0x03	; 3
     672:	20 e2       	ldi	r18, 0x20	; 32
     674:	34 e0       	ldi	r19, 0x04	; 4
     676:	84 e1       	ldi	r24, 0x14	; 20
     678:	23 b9       	out	0x03, r18	; 3
     67a:	23 b9       	out	0x03, r18	; 3
     67c:	81 50       	subi	r24, 0x01	; 1
     67e:	e1 f7       	brne	.-8      	; 0x678 <sr_init+0x18>
     680:	33 b9       	out	0x03, r19	; 3
     682:	33 b9       	out	0x03, r19	; 3
     684:	91 50       	subi	r25, 0x01	; 1
     686:	b9 f7       	brne	.-18     	; 0x676 <sr_init+0x16>
     688:	8b ed       	ldi	r24, 0xDB	; 219
     68a:	95 e0       	ldi	r25, 0x05	; 5
     68c:	01 97       	sbiw	r24, 0x01	; 1
     68e:	f1 f7       	brne	.-4      	; 0x68c <sr_init+0x2c>
     690:	00 c0       	rjmp	.+0      	; 0x692 <sr_init+0x32>
     692:	00 00       	nop
     694:	43 98       	cbi	0x08, 3	; 8
     696:	8c b5       	in	r24, 0x2c	; 44
     698:	81 65       	ori	r24, 0x51	; 81
     69a:	8c bd       	out	0x2c, r24	; 44
     69c:	08 95       	ret

0000069e <sr_enable>:
     69e:	43 98       	cbi	0x08, 3	; 8
     6a0:	08 95       	ret

000006a2 <sr_disable>:
     6a2:	43 9a       	sbi	0x08, 3	; 8
     6a4:	08 95       	ret

000006a6 <sr_shiftout>:
     6a6:	2b 98       	cbi	0x05, 3	; 5
     6a8:	2d 98       	cbi	0x05, 5	; 5
     6aa:	2a 98       	cbi	0x05, 2	; 5
     6ac:	9e bd       	out	0x2e, r25	; 46
     6ae:	0d b4       	in	r0, 0x2d	; 45
     6b0:	07 fe       	sbrs	r0, 7
     6b2:	fd cf       	rjmp	.-6      	; 0x6ae <sr_shiftout+0x8>
     6b4:	8e bd       	out	0x2e, r24	; 46
     6b6:	0d b4       	in	r0, 0x2d	; 45
     6b8:	07 fe       	sbrs	r0, 7
     6ba:	fd cf       	rjmp	.-6      	; 0x6b6 <sr_shiftout+0x10>
     6bc:	84 e0       	ldi	r24, 0x04	; 4
     6be:	83 b9       	out	0x03, r24	; 3
     6c0:	83 b9       	out	0x03, r24	; 3
     6c2:	08 95       	ret

000006c4 <key_init>:
     6c4:	5b 9a       	sbi	0x0b, 3	; 11
     6c6:	53 98       	cbi	0x0a, 3	; 10
     6c8:	e8 e6       	ldi	r30, 0x68	; 104
     6ca:	f0 e0       	ldi	r31, 0x00	; 0
     6cc:	80 81       	ld	r24, Z
     6ce:	84 60       	ori	r24, 0x04	; 4
     6d0:	80 83       	st	Z, r24
     6d2:	ad e6       	ldi	r26, 0x6D	; 109
     6d4:	b0 e0       	ldi	r27, 0x00	; 0
     6d6:	8c 91       	ld	r24, X
     6d8:	88 60       	ori	r24, 0x08	; 8
     6da:	8c 93       	st	X, r24
     6dc:	52 98       	cbi	0x0a, 2	; 10
     6de:	80 81       	ld	r24, Z
     6e0:	84 60       	ori	r24, 0x04	; 4
     6e2:	80 83       	st	Z, r24
     6e4:	45 98       	cbi	0x08, 5	; 8
     6e6:	3d 9a       	sbi	0x07, 5	; 7
     6e8:	08 95       	ret

000006ea <debounce>:
     6ea:	dc 01       	movw	r26, r24
     6ec:	e5 b5       	in	r30, 0x25	; 37
     6ee:	16 bc       	out	0x26, r1	; 38
     6f0:	81 e0       	ldi	r24, 0x01	; 1
     6f2:	85 bb       	out	0x15, r24	; 21
     6f4:	80 ea       	ldi	r24, 0xA0	; 160
     6f6:	86 bd       	out	0x26, r24	; 38
     6f8:	85 e0       	ldi	r24, 0x05	; 5
     6fa:	85 bd       	out	0x25, r24	; 37
     6fc:	21 e0       	ldi	r18, 0x01	; 1
     6fe:	30 e0       	ldi	r19, 0x00	; 0
     700:	c9 01       	movw	r24, r18
     702:	02 c0       	rjmp	.+4      	; 0x708 <debounce+0x1e>
     704:	88 0f       	add	r24, r24
     706:	99 1f       	adc	r25, r25
     708:	6a 95       	dec	r22
     70a:	e2 f7       	brpl	.-8      	; 0x704 <debounce+0x1a>
     70c:	bc 01       	movw	r22, r24
     70e:	40 e0       	ldi	r20, 0x00	; 0
     710:	95 e5       	ldi	r25, 0x55	; 85
     712:	81 e0       	ldi	r24, 0x01	; 1
     714:	f0 ea       	ldi	r31, 0xA0	; 160
     716:	2f ef       	ldi	r18, 0xFF	; 255
     718:	29 0f       	add	r18, r25
     71a:	2e 3f       	cpi	r18, 0xFE	; 254
     71c:	38 f0       	brcs	.+14     	; 0x72c <debounce+0x42>
     71e:	48 30       	cpi	r20, 0x08	; 8
     720:	28 f0       	brcs	.+10     	; 0x72c <debounce+0x42>
     722:	e5 bd       	out	0x25, r30	; 37
     724:	81 e0       	ldi	r24, 0x01	; 1
     726:	91 11       	cpse	r25, r1
     728:	80 e0       	ldi	r24, 0x00	; 0
     72a:	08 95       	ret
     72c:	2c 91       	ld	r18, X
     72e:	30 e0       	ldi	r19, 0x00	; 0
     730:	26 23       	and	r18, r22
     732:	37 23       	and	r19, r23
     734:	51 e0       	ldi	r21, 0x01	; 1
     736:	12 16       	cp	r1, r18
     738:	13 06       	cpc	r1, r19
     73a:	0c f0       	brlt	.+2      	; 0x73e <debounce+0x54>
     73c:	50 e0       	ldi	r21, 0x00	; 0
     73e:	99 0f       	add	r25, r25
     740:	95 2b       	or	r25, r21
     742:	a8 9b       	sbis	0x15, 0	; 21
     744:	fe cf       	rjmp	.-4      	; 0x742 <debounce+0x58>
     746:	85 bb       	out	0x15, r24	; 21
     748:	f6 bd       	out	0x26, r31	; 38
     74a:	48 30       	cpi	r20, 0x08	; 8
     74c:	20 f7       	brcc	.-56     	; 0x716 <debounce+0x2c>
     74e:	4f 5f       	subi	r20, 0xFF	; 255
     750:	e2 cf       	rjmp	.-60     	; 0x716 <debounce+0x2c>

00000752 <main>:
     752:	cf 93       	push	r28
     754:	df 93       	push	r29
     756:	cd b7       	in	r28, 0x3d	; 61
     758:	de b7       	in	r29, 0x3e	; 62
     75a:	c1 5a       	subi	r28, 0xA1	; 161
     75c:	d1 40       	sbci	r29, 0x01	; 1
     75e:	0f b6       	in	r0, 0x3f	; 63
     760:	f8 94       	cli
     762:	de bf       	out	0x3e, r29	; 62
     764:	0f be       	out	0x3f, r0	; 63
     766:	cd bf       	out	0x3d, r28	; 61
     768:	0f b6       	in	r0, 0x3f	; 63
     76a:	f8 94       	cli
     76c:	a8 95       	wdr
     76e:	80 91 60 00 	lds	r24, 0x0060	; 0x800060 <__TEXT_REGION_LENGTH__+0x7e0060>
     772:	88 61       	ori	r24, 0x18	; 24
     774:	80 93 60 00 	sts	0x0060, r24	; 0x800060 <__TEXT_REGION_LENGTH__+0x7e0060>
     778:	10 92 60 00 	sts	0x0060, r1	; 0x800060 <__TEXT_REGION_LENGTH__+0x7e0060>
     77c:	0f be       	out	0x3f, r0	; 63
     77e:	86 e1       	ldi	r24, 0x16	; 22
     780:	e8 e1       	ldi	r30, 0x18	; 24
     782:	f1 e0       	ldi	r31, 0x01	; 1
     784:	de 01       	movw	r26, r28
     786:	a7 59       	subi	r26, 0x97	; 151
     788:	be 4f       	sbci	r27, 0xFE	; 254
     78a:	01 90       	ld	r0, Z+
     78c:	0d 92       	st	X+, r0
     78e:	8a 95       	dec	r24
     790:	e1 f7       	brne	.-8      	; 0x78a <main+0x38>
     792:	9e 01       	movw	r18, r28
     794:	2f 5f       	subi	r18, 0xFF	; 255
     796:	3f 4f       	sbci	r19, 0xFF	; 255
     798:	19 01       	movw	r2, r18
     79a:	8a e4       	ldi	r24, 0x4A	; 74
     79c:	91 e0       	ldi	r25, 0x01	; 1
     79e:	f9 01       	movw	r30, r18
     7a0:	9c 01       	movw	r18, r24
     7a2:	11 92       	st	Z+, r1
     7a4:	21 50       	subi	r18, 0x01	; 1
     7a6:	30 40       	sbci	r19, 0x00	; 0
     7a8:	e1 f7       	brne	.-8      	; 0x7a2 <main+0x50>
     7aa:	ce 01       	movw	r24, r28
     7ac:	81 57       	subi	r24, 0x71	; 113
     7ae:	9e 4f       	sbci	r25, 0xFE	; 254
     7b0:	c6 56       	subi	r28, 0x66	; 102
     7b2:	de 4f       	sbci	r29, 0xFE	; 254
     7b4:	99 83       	std	Y+1, r25	; 0x01
     7b6:	88 83       	st	Y, r24
     7b8:	ca 59       	subi	r28, 0x9A	; 154
     7ba:	d1 40       	sbci	r29, 0x01	; 1
     7bc:	8b e0       	ldi	r24, 0x0B	; 11
     7be:	c6 56       	subi	r28, 0x66	; 102
     7c0:	de 4f       	sbci	r29, 0xFE	; 254
     7c2:	e8 81       	ld	r30, Y
     7c4:	f9 81       	ldd	r31, Y+1	; 0x01
     7c6:	ca 59       	subi	r28, 0x9A	; 154
     7c8:	d1 40       	sbci	r29, 0x01	; 1
     7ca:	11 92       	st	Z+, r1
     7cc:	8a 95       	dec	r24
     7ce:	e9 f7       	brne	.-6      	; 0x7ca <main+0x78>
     7d0:	9e 01       	movw	r18, r28
     7d2:	21 58       	subi	r18, 0x81	; 129
     7d4:	3e 4f       	sbci	r19, 0xFE	; 254
     7d6:	c4 56       	subi	r28, 0x64	; 100
     7d8:	de 4f       	sbci	r29, 0xFE	; 254
     7da:	39 83       	std	Y+1, r19	; 0x01
     7dc:	28 83       	st	Y, r18
     7de:	cc 59       	subi	r28, 0x9C	; 156
     7e0:	d1 40       	sbci	r29, 0x01	; 1
     7e2:	80 e1       	ldi	r24, 0x10	; 16
     7e4:	f9 01       	movw	r30, r18
     7e6:	11 92       	st	Z+, r1
     7e8:	8a 95       	dec	r24
     7ea:	e9 f7       	brne	.-6      	; 0x7e6 <main+0x94>
     7ec:	26 51       	subi	r18, 0x16	; 22
     7ee:	31 09       	sbc	r19, r1
     7f0:	79 01       	movw	r14, r18
     7f2:	61 01       	movw	r12, r2
     7f4:	a9 01       	movw	r20, r18
     7f6:	4a 5e       	subi	r20, 0xEA	; 234
     7f8:	5f 4f       	sbci	r21, 0xFF	; 255
     7fa:	c1 01       	movw	r24, r2
     7fc:	f9 01       	movw	r30, r18
     7fe:	21 91       	ld	r18, Z+
     800:	31 91       	ld	r19, Z+
     802:	dc 01       	movw	r26, r24
     804:	6f e0       	ldi	r22, 0x0F	; 15
     806:	2d 93       	st	X+, r18
     808:	3d 93       	st	X+, r19
     80a:	61 50       	subi	r22, 0x01	; 1
     80c:	e1 f7       	brne	.-8      	; 0x806 <main+0xb4>
     80e:	4e 96       	adiw	r24, 0x1e	; 30
     810:	e4 17       	cp	r30, r20
     812:	f5 07       	cpc	r31, r21
     814:	a1 f7       	brne	.-24     	; 0x7fe <main+0xac>
     816:	10 e0       	ldi	r17, 0x00	; 0
     818:	00 e0       	ldi	r16, 0x00	; 0
     81a:	2e 01       	movw	r4, r28
     81c:	35 eb       	ldi	r19, 0xB5	; 181
     81e:	43 1a       	sub	r4, r19
     820:	3e ef       	ldi	r19, 0xFE	; 254
     822:	53 0a       	sbc	r5, r19
     824:	8e e1       	ldi	r24, 0x1E	; 30
     826:	f2 01       	movw	r30, r4
     828:	11 92       	st	Z+, r1
     82a:	8a 95       	dec	r24
     82c:	e9 f7       	brne	.-6      	; 0x828 <main+0xd6>
     82e:	0e 94 30 03 	call	0x660	; 0x660 <sr_init>
     832:	80 91 64 00 	lds	r24, 0x0064	; 0x800064 <__TEXT_REGION_LENGTH__+0x7e0064>
     836:	80 6c       	ori	r24, 0xC0	; 192
     838:	80 93 64 00 	sts	0x0064, r24	; 0x800064 <__TEXT_REGION_LENGTH__+0x7e0064>
     83c:	80 b7       	in	r24, 0x30	; 48
     83e:	80 68       	ori	r24, 0x80	; 128
     840:	80 bf       	out	0x30, r24	; 48
     842:	0e 94 38 0c 	call	0x1870	; 0x1870 <timer1_init>
     846:	0e 94 62 03 	call	0x6c4	; 0x6c4 <key_init>
     84a:	0e 94 23 03 	call	0x646	; 0x646 <led_init>
     84e:	0e 94 53 02 	call	0x4a6	; 0x4a6 <adc_init>
     852:	60 e8       	ldi	r22, 0x80	; 128
     854:	75 e2       	ldi	r23, 0x25	; 37
     856:	80 e0       	ldi	r24, 0x00	; 0
     858:	90 e0       	ldi	r25, 0x00	; 0
     85a:	0e 94 5e 0c 	call	0x18bc	; 0x18bc <uart_init>
     85e:	81 e0       	ldi	r24, 0x01	; 1
     860:	90 e0       	ldi	r25, 0x00	; 0
     862:	0e 94 bf 02 	call	0x57e	; 0x57e <eeread>
     866:	8f 3f       	cpi	r24, 0xFF	; 255
     868:	09 f4       	brne	.+2      	; 0x86c <main+0x11a>
     86a:	a4 c0       	rjmp	.+328    	; 0x9b4 <__stack+0xb5>
     86c:	9e 01       	movw	r18, r28
     86e:	21 57       	subi	r18, 0x71	; 113
     870:	3e 4f       	sbci	r19, 0xFE	; 254
     872:	49 01       	movw	r8, r18
     874:	5d e0       	ldi	r21, 0x0D	; 13
     876:	a5 2e       	mov	r10, r21
     878:	b1 2c       	mov	r11, r1
     87a:	62 e0       	ldi	r22, 0x02	; 2
     87c:	66 2e       	mov	r6, r22
     87e:	71 2c       	mov	r7, r1
     880:	c3 01       	movw	r24, r6
     882:	0e 94 bf 02 	call	0x57e	; 0x57e <eeread>
     886:	f4 01       	movw	r30, r8
     888:	81 93       	st	Z+, r24
     88a:	4f 01       	movw	r8, r30
     88c:	c5 01       	movw	r24, r10
     88e:	0e 94 d2 02 	call	0x5a4	; 0x5a4 <eeread16>
     892:	f7 01       	movw	r30, r14
     894:	81 93       	st	Z+, r24
     896:	91 93       	st	Z+, r25
     898:	7f 01       	movw	r14, r30
     89a:	ff ef       	ldi	r31, 0xFF	; 255
     89c:	6f 1a       	sub	r6, r31
     89e:	7f 0a       	sbc	r7, r31
     8a0:	22 e0       	ldi	r18, 0x02	; 2
     8a2:	a2 0e       	add	r10, r18
     8a4:	b1 1c       	adc	r11, r1
     8a6:	3d e0       	ldi	r19, 0x0D	; 13
     8a8:	63 16       	cp	r6, r19
     8aa:	71 04       	cpc	r7, r1
     8ac:	49 f7       	brne	.-46     	; 0x880 <main+0x12e>
     8ae:	41 e4       	ldi	r20, 0x41	; 65
     8b0:	e4 2e       	mov	r14, r20
     8b2:	f1 2c       	mov	r15, r1
     8b4:	57 01       	movw	r10, r14
     8b6:	8e e1       	ldi	r24, 0x1E	; 30
     8b8:	a8 1a       	sub	r10, r24
     8ba:	b1 08       	sbc	r11, r1
     8bc:	46 01       	movw	r8, r12
     8be:	c5 01       	movw	r24, r10
     8c0:	0e 94 d2 02 	call	0x5a4	; 0x5a4 <eeread16>
     8c4:	f4 01       	movw	r30, r8
     8c6:	81 93       	st	Z+, r24
     8c8:	91 93       	st	Z+, r25
     8ca:	4f 01       	movw	r8, r30
     8cc:	f2 e0       	ldi	r31, 0x02	; 2
     8ce:	af 0e       	add	r10, r31
     8d0:	b1 1c       	adc	r11, r1
     8d2:	ae 14       	cp	r10, r14
     8d4:	bf 04       	cpc	r11, r15
     8d6:	99 f7       	brne	.-26     	; 0x8be <main+0x16c>
     8d8:	2e e1       	ldi	r18, 0x1E	; 30
     8da:	c2 0e       	add	r12, r18
     8dc:	d1 1c       	adc	r13, r1
     8de:	3e e1       	ldi	r19, 0x1E	; 30
     8e0:	e3 0e       	add	r14, r19
     8e2:	f1 1c       	adc	r15, r1
     8e4:	4b e8       	ldi	r20, 0x8B	; 139
     8e6:	e4 16       	cp	r14, r20
     8e8:	41 e0       	ldi	r20, 0x01	; 1
     8ea:	f4 06       	cpc	r15, r20
     8ec:	19 f7       	brne	.-58     	; 0x8b4 <main+0x162>
     8ee:	8d e6       	ldi	r24, 0x6D	; 109
     8f0:	91 e0       	ldi	r25, 0x01	; 1
     8f2:	0e 94 bf 02 	call	0x57e	; 0x57e <eeread>
     8f6:	a8 2e       	mov	r10, r24
     8f8:	98 ec       	ldi	r25, 0xC8	; 200
     8fa:	89 17       	cp	r24, r25
     8fc:	11 f0       	breq	.+4      	; 0x902 <__stack+0x3>
     8fe:	82 e0       	ldi	r24, 0x02	; 2
     900:	a8 2e       	mov	r10, r24
     902:	81 e0       	ldi	r24, 0x01	; 1
     904:	80 93 95 01 	sts	0x0195, r24	; 0x800195 <key_flag>
     908:	78 94       	sei
     90a:	b1 2c       	mov	r11, r1
     90c:	dd 24       	eor	r13, r13
     90e:	d3 94       	inc	r13
     910:	81 2c       	mov	r8, r1
     912:	91 2c       	mov	r9, r1
     914:	f1 2c       	mov	r15, r1
     916:	e1 2c       	mov	r14, r1
     918:	f2 01       	movw	r30, r4
     91a:	31 96       	adiw	r30, 0x01	; 1
     91c:	c2 56       	subi	r28, 0x62	; 98
     91e:	de 4f       	sbci	r29, 0xFE	; 254
     920:	f9 83       	std	Y+1, r31	; 0x01
     922:	e8 83       	st	Y, r30
     924:	ce 59       	subi	r28, 0x9E	; 158
     926:	d1 40       	sbci	r29, 0x01	; 1
     928:	2f e7       	ldi	r18, 0x7F	; 127
     92a:	31 e0       	ldi	r19, 0x01	; 1
     92c:	2c 0f       	add	r18, r28
     92e:	3d 1f       	adc	r19, r29
     930:	20 5f       	subi	r18, 0xF0	; 240
     932:	3f 4f       	sbci	r19, 0xFF	; 255
     934:	c0 56       	subi	r28, 0x60	; 96
     936:	de 4f       	sbci	r29, 0xFE	; 254
     938:	39 83       	std	Y+1, r19	; 0x01
     93a:	28 83       	st	Y, r18
     93c:	c0 5a       	subi	r28, 0xA0	; 160
     93e:	d1 40       	sbci	r29, 0x01	; 1
     940:	80 91 95 01 	lds	r24, 0x0195	; 0x800195 <key_flag>
     944:	88 23       	and	r24, r24
     946:	d9 f0       	breq	.+54     	; 0x97e <__stack+0x7f>
     948:	cf b6       	in	r12, 0x3f	; 63
     94a:	f8 94       	cli
     94c:	10 92 95 01 	sts	0x0195, r1	; 0x800195 <key_flag>
     950:	63 e0       	ldi	r22, 0x03	; 3
     952:	89 e2       	ldi	r24, 0x29	; 41
     954:	90 e0       	ldi	r25, 0x00	; 0
     956:	0e 94 75 03 	call	0x6ea	; 0x6ea <debounce>
     95a:	98 2e       	mov	r9, r24
     95c:	88 23       	and	r24, r24
     95e:	09 f4       	brne	.+2      	; 0x962 <__stack+0x63>
     960:	77 c0       	rjmp	.+238    	; 0xa50 <__stack+0x151>
     962:	84 e0       	ldi	r24, 0x04	; 4
     964:	0e 94 73 02 	call	0x4e6	; 0x4e6 <adc_read>
     968:	88 2e       	mov	r8, r24
     96a:	80 91 6d 00 	lds	r24, 0x006D	; 0x80006d <__TEXT_REGION_LENGTH__+0x7e006d>
     96e:	84 60       	ori	r24, 0x04	; 4
     970:	80 93 6d 00 	sts	0x006D, r24	; 0x80006d <__TEXT_REGION_LENGTH__+0x7e006d>
     974:	0e 94 fa 02 	call	0x5f4	; 0x5f4 <led_red_on>
     978:	dd 24       	eor	r13, r13
     97a:	d3 94       	inc	r13
     97c:	cf be       	out	0x3f, r12	; 63
     97e:	80 91 c0 00 	lds	r24, 0x00C0	; 0x8000c0 <__TEXT_REGION_LENGTH__+0x7e00c0>
     982:	87 fb       	bst	r24, 7
     984:	10 f9       	bld	r17, 0
     986:	10 ff       	sbrs	r17, 0
     988:	ee c0       	rjmp	.+476    	; 0xb66 <__stack+0x267>
     98a:	7f b6       	in	r7, 0x3f	; 63
     98c:	f8 94       	cli
     98e:	1e 7f       	andi	r17, 0xFE	; 254
     990:	0e 94 f3 02 	call	0x5e6	; 0x5e6 <led_yellow_on>
     994:	0e 94 94 0c 	call	0x1928	; 0x1928 <uart_getc>
     998:	f2 01       	movw	r30, r4
     99a:	80 83       	st	Z, r24
     99c:	8d 30       	cpi	r24, 0x0D	; 13
     99e:	39 f0       	breq	.+14     	; 0x9ae <__stack+0xaf>
     9a0:	08 f0       	brcs	.+2      	; 0x9a4 <__stack+0xa5>
     9a2:	72 c0       	rjmp	.+228    	; 0xa88 <__stack+0x189>
     9a4:	88 30       	cpi	r24, 0x08	; 8
     9a6:	19 f0       	breq	.+6      	; 0x9ae <__stack+0xaf>
     9a8:	8a 30       	cpi	r24, 0x0A	; 10
     9aa:	09 f0       	breq	.+2      	; 0x9ae <__stack+0xaf>
     9ac:	0c c1       	rjmp	.+536    	; 0xbc6 <__stack+0x2c7>
     9ae:	f2 01       	movw	r30, r4
     9b0:	10 82       	st	Z, r1
     9b2:	7d c0       	rjmp	.+250    	; 0xaae <__stack+0x1af>
     9b4:	fe 01       	movw	r30, r28
     9b6:	e1 57       	subi	r30, 0x71	; 113
     9b8:	fe 4f       	sbci	r31, 0xFE	; 254
     9ba:	4f 01       	movw	r8, r30
     9bc:	9e 01       	movw	r18, r28
     9be:	27 59       	subi	r18, 0x97	; 151
     9c0:	3e 4f       	sbci	r19, 0xFE	; 254
     9c2:	59 01       	movw	r10, r18
     9c4:	2d e0       	ldi	r18, 0x0D	; 13
     9c6:	c2 2e       	mov	r12, r18
     9c8:	d1 2c       	mov	r13, r1
     9ca:	32 e0       	ldi	r19, 0x02	; 2
     9cc:	63 2e       	mov	r6, r19
     9ce:	71 2c       	mov	r7, r1
     9d0:	b3 01       	movw	r22, r6
     9d2:	f4 01       	movw	r30, r8
     9d4:	81 91       	ld	r24, Z+
     9d6:	4f 01       	movw	r8, r30
     9d8:	0e 94 c8 02 	call	0x590	; 0x590 <eewrite>
     9dc:	b6 01       	movw	r22, r12
     9de:	f5 01       	movw	r30, r10
     9e0:	81 91       	ld	r24, Z+
     9e2:	91 91       	ld	r25, Z+
     9e4:	5f 01       	movw	r10, r30
     9e6:	0e 94 e2 02 	call	0x5c4	; 0x5c4 <eewrite16>
     9ea:	ff ef       	ldi	r31, 0xFF	; 255
     9ec:	6f 1a       	sub	r6, r31
     9ee:	7f 0a       	sbc	r7, r31
     9f0:	22 e0       	ldi	r18, 0x02	; 2
     9f2:	c2 0e       	add	r12, r18
     9f4:	d1 1c       	adc	r13, r1
     9f6:	3d e0       	ldi	r19, 0x0D	; 13
     9f8:	63 16       	cp	r6, r19
     9fa:	71 04       	cpc	r7, r1
     9fc:	49 f7       	brne	.-46     	; 0x9d0 <__stack+0xd1>
     9fe:	91 e4       	ldi	r25, 0x41	; 65
     a00:	c9 2e       	mov	r12, r25
     a02:	d1 2c       	mov	r13, r1
     a04:	56 01       	movw	r10, r12
     a06:	8e e1       	ldi	r24, 0x1E	; 30
     a08:	a8 1a       	sub	r10, r24
     a0a:	b1 08       	sbc	r11, r1
     a0c:	b5 01       	movw	r22, r10
     a0e:	f7 01       	movw	r30, r14
     a10:	80 81       	ld	r24, Z
     a12:	91 81       	ldd	r25, Z+1	; 0x01
     a14:	0e 94 e2 02 	call	0x5c4	; 0x5c4 <eewrite16>
     a18:	f2 e0       	ldi	r31, 0x02	; 2
     a1a:	af 0e       	add	r10, r31
     a1c:	b1 1c       	adc	r11, r1
     a1e:	ca 14       	cp	r12, r10
     a20:	db 04       	cpc	r13, r11
     a22:	a1 f7       	brne	.-24     	; 0xa0c <__stack+0x10d>
     a24:	22 e0       	ldi	r18, 0x02	; 2
     a26:	e2 0e       	add	r14, r18
     a28:	f1 1c       	adc	r15, r1
     a2a:	3e e1       	ldi	r19, 0x1E	; 30
     a2c:	c3 0e       	add	r12, r19
     a2e:	d1 1c       	adc	r13, r1
     a30:	4b e8       	ldi	r20, 0x8B	; 139
     a32:	c4 16       	cp	r12, r20
     a34:	41 e0       	ldi	r20, 0x01	; 1
     a36:	d4 06       	cpc	r13, r20
     a38:	29 f7       	brne	.-54     	; 0xa04 <__stack+0x105>
     a3a:	61 e0       	ldi	r22, 0x01	; 1
     a3c:	70 e0       	ldi	r23, 0x00	; 0
     a3e:	80 e0       	ldi	r24, 0x00	; 0
     a40:	0e 94 c8 02 	call	0x590	; 0x590 <eewrite>
     a44:	6d e6       	ldi	r22, 0x6D	; 109
     a46:	71 e0       	ldi	r23, 0x01	; 1
     a48:	82 e0       	ldi	r24, 0x02	; 2
     a4a:	0e 94 c8 02 	call	0x590	; 0x590 <eewrite>
     a4e:	4f cf       	rjmp	.-354    	; 0x8ee <main+0x19c>
     a50:	45 98       	cbi	0x08, 5	; 8
     a52:	80 91 6d 00 	lds	r24, 0x006D	; 0x80006d <__TEXT_REGION_LENGTH__+0x7e006d>
     a56:	8b 7f       	andi	r24, 0xFB	; 251
     a58:	80 93 6d 00 	sts	0x006D, r24	; 0x80006d <__TEXT_REGION_LENGTH__+0x7e006d>
     a5c:	1b 7f       	andi	r17, 0xFB	; 251
     a5e:	1f 7d       	andi	r17, 0xDF	; 223
     a60:	1f 7e       	andi	r17, 0xEF	; 239
     a62:	10 92 96 01 	sts	0x0196, r1	; 0x800196 <trigger_flag>
     a66:	90 e0       	ldi	r25, 0x00	; 0
     a68:	80 e0       	ldi	r24, 0x00	; 0
     a6a:	0e 94 53 03 	call	0x6a6	; 0x6a6 <sr_shiftout>
     a6e:	0e 94 55 0c 	call	0x18aa	; 0x18aa <timer1_reset>
     a72:	0e 94 4f 0c 	call	0x189e	; 0x189e <timer1_off>
     a76:	0e 94 ff 02 	call	0x5fe	; 0x5fe <led_red_off>
     a7a:	0e 94 0d 03 	call	0x61a	; 0x61a <led_orange_off>
     a7e:	0e 94 06 03 	call	0x60c	; 0x60c <led_green_off>
     a82:	f1 2c       	mov	r15, r1
     a84:	e1 2c       	mov	r14, r1
     a86:	7a cf       	rjmp	.-268    	; 0x97c <__stack+0x7d>
     a88:	8f 37       	cpi	r24, 0x7F	; 127
     a8a:	09 f4       	brne	.+2      	; 0xa8e <__stack+0x18f>
     a8c:	90 cf       	rjmp	.-224    	; 0x9ae <__stack+0xaf>
     a8e:	8f 3f       	cpi	r24, 0xFF	; 255
     a90:	09 f0       	breq	.+2      	; 0xa94 <__stack+0x195>
     a92:	99 c0       	rjmp	.+306    	; 0xbc6 <__stack+0x2c7>
     a94:	0e 94 94 0c 	call	0x1928	; 0x1928 <uart_getc>
     a98:	f2 01       	movw	r30, r4
     a9a:	81 83       	std	Z+1, r24	; 0x01
     a9c:	0e 94 94 0c 	call	0x1928	; 0x1928 <uart_getc>
     aa0:	f2 01       	movw	r30, r4
     aa2:	82 83       	std	Z+2, r24	; 0x02
     aa4:	0e 94 94 0c 	call	0x1928	; 0x1928 <uart_getc>
     aa8:	f2 01       	movw	r30, r4
     aaa:	83 83       	std	Z+3, r24	; 0x03
     aac:	14 82       	std	Z+4, r1	; 0x04
     aae:	6e e2       	ldi	r22, 0x2E	; 46
     ab0:	71 e0       	ldi	r23, 0x01	; 1
     ab2:	c2 01       	movw	r24, r4
     ab4:	0e 94 d5 0c 	call	0x19aa	; 0x19aa <uart_strings_equal>
     ab8:	81 11       	cpse	r24, r1
     aba:	10 64       	ori	r17, 0x40	; 64
     abc:	63 e3       	ldi	r22, 0x33	; 51
     abe:	71 e0       	ldi	r23, 0x01	; 1
     ac0:	c2 01       	movw	r24, r4
     ac2:	0e 94 d5 0c 	call	0x19aa	; 0x19aa <uart_strings_equal>
     ac6:	88 23       	and	r24, r24
     ac8:	09 f4       	brne	.+2      	; 0xacc <__stack+0x1cd>
     aca:	9a c0       	rjmp	.+308    	; 0xc00 <__stack+0x301>
     acc:	00 62       	ori	r16, 0x20	; 32
     ace:	60 e4       	ldi	r22, 0x40	; 64
     ad0:	71 e0       	ldi	r23, 0x01	; 1
     ad2:	c2 01       	movw	r24, r4
     ad4:	0e 94 d5 0c 	call	0x19aa	; 0x19aa <uart_strings_equal>
     ad8:	ca 2c       	mov	r12, r10
     ada:	88 23       	and	r24, r24
     adc:	51 f0       	breq	.+20     	; 0xaf2 <__stack+0x1f3>
     ade:	8a 2d       	mov	r24, r10
     ae0:	0e 94 95 0a 	call	0x152a	; 0x152a <igniter_setup>
     ae4:	c8 2e       	mov	r12, r24
     ae6:	a8 16       	cp	r10, r24
     ae8:	21 f0       	breq	.+8      	; 0xaf2 <__stack+0x1f3>
     aea:	6d e6       	ldi	r22, 0x6D	; 109
     aec:	71 e0       	ldi	r23, 0x01	; 1
     aee:	0e 94 c8 02 	call	0x590	; 0x590 <eewrite>
     af2:	68 e4       	ldi	r22, 0x48	; 72
     af4:	71 e0       	ldi	r23, 0x01	; 1
     af6:	c2 01       	movw	r24, r4
     af8:	0e 94 d5 0c 	call	0x19aa	; 0x19aa <uart_strings_equal>
     afc:	81 11       	cpse	r24, r1
     afe:	02 60       	ori	r16, 0x02	; 2
     b00:	6d e4       	ldi	r22, 0x4D	; 77
     b02:	71 e0       	ldi	r23, 0x01	; 1
     b04:	c2 01       	movw	r24, r4
     b06:	0e 94 d5 0c 	call	0x19aa	; 0x19aa <uart_strings_equal>
     b0a:	88 23       	and	r24, r24
     b0c:	19 f0       	breq	.+6      	; 0xb14 <__stack+0x215>
     b0e:	f1 e0       	ldi	r31, 0x01	; 1
     b10:	f0 93 96 01 	sts	0x0196, r31	; 0x800196 <trigger_flag>
     b14:	65 e5       	ldi	r22, 0x55	; 85
     b16:	71 e0       	ldi	r23, 0x01	; 1
     b18:	c2 01       	movw	r24, r4
     b1a:	0e 94 d5 0c 	call	0x19aa	; 0x19aa <uart_strings_equal>
     b1e:	81 11       	cpse	r24, r1
     b20:	0e 94 6b 07 	call	0xed6	; 0xed6 <terminal_reset>
     b24:	69 e5       	ldi	r22, 0x59	; 89
     b26:	71 e0       	ldi	r23, 0x01	; 1
     b28:	c2 01       	movw	r24, r4
     b2a:	0e 94 d5 0c 	call	0x19aa	; 0x19aa <uart_strings_equal>
     b2e:	81 11       	cpse	r24, r1
     b30:	08 60       	ori	r16, 0x08	; 8
     b32:	6e e5       	ldi	r22, 0x5E	; 94
     b34:	71 e0       	ldi	r23, 0x01	; 1
     b36:	c2 01       	movw	r24, r4
     b38:	0e 94 d5 0c 	call	0x19aa	; 0x19aa <uart_strings_equal>
     b3c:	88 23       	and	r24, r24
     b3e:	31 f0       	breq	.+12     	; 0xb4c <__stack+0x24d>
     b40:	61 e0       	ldi	r22, 0x01	; 1
     b42:	70 e0       	ldi	r23, 0x00	; 0
     b44:	8f ef       	ldi	r24, 0xFF	; 255
     b46:	0e 94 c8 02 	call	0x590	; 0x590 <eewrite>
     b4a:	08 60       	ori	r16, 0x08	; 8
     b4c:	0e 94 f8 02 	call	0x5f0	; 0x5f0 <led_yellow_off>
     b50:	f2 01       	movw	r30, r4
     b52:	80 81       	ld	r24, Z
     b54:	81 50       	subi	r24, 0x01	; 1
     b56:	8e 3f       	cpi	r24, 0xFE	; 254
     b58:	20 f4       	brcc	.+8      	; 0xb62 <__stack+0x263>
     b5a:	84 e7       	ldi	r24, 0x74	; 116
     b5c:	90 e0       	ldi	r25, 0x00	; 0
     b5e:	0e 94 c6 0c 	call	0x198c	; 0x198c <uart_puts_P>
     b62:	7f be       	out	0x3f, r7	; 63
     b64:	ac 2c       	mov	r10, r12
     b66:	16 ff       	sbrs	r17, 6
     b68:	0d c0       	rjmp	.+26     	; 0xb84 <__stack+0x285>
     b6a:	cf b6       	in	r12, 0x3f	; 63
     b6c:	f8 94       	cli
     b6e:	1f 7b       	andi	r17, 0xBF	; 191
     b70:	ae 01       	movw	r20, r28
     b72:	41 57       	subi	r20, 0x71	; 113
     b74:	5e 4f       	sbci	r21, 0xFE	; 254
     b76:	be 01       	movw	r22, r28
     b78:	67 59       	subi	r22, 0x97	; 151
     b7a:	7e 4f       	sbci	r23, 0xFE	; 254
     b7c:	c1 01       	movw	r24, r2
     b7e:	0e 94 af 09 	call	0x135e	; 0x135e <list_complete>
     b82:	cf be       	out	0x3f, r12	; 63
     b84:	01 ff       	sbrs	r16, 1
     b86:	0d c0       	rjmp	.+26     	; 0xba2 <__stack+0x2a3>
     b88:	cf b6       	in	r12, 0x3f	; 63
     b8a:	f8 94       	cli
     b8c:	0d 7f       	andi	r16, 0xFD	; 253
     b8e:	ae 01       	movw	r20, r28
     b90:	41 57       	subi	r20, 0x71	; 113
     b92:	5e 4f       	sbci	r21, 0xFE	; 254
     b94:	be 01       	movw	r22, r28
     b96:	67 59       	subi	r22, 0x97	; 151
     b98:	7e 4f       	sbci	r23, 0xFE	; 254
     b9a:	c1 01       	movw	r24, r2
     b9c:	0e 94 be 07 	call	0xf7c	; 0xf7c <channel_setup>
     ba0:	cf be       	out	0x3f, r12	; 63
     ba2:	03 ff       	sbrs	r16, 3
     ba4:	35 c0       	rjmp	.+106    	; 0xc10 <__stack+0x311>
     ba6:	f8 94       	cli
     ba8:	0e 94 51 03 	call	0x6a2	; 0x6a2 <sr_disable>
     bac:	88 e1       	ldi	r24, 0x18	; 24
     bae:	9e e0       	ldi	r25, 0x0E	; 14
     bb0:	0f b6       	in	r0, 0x3f	; 63
     bb2:	f8 94       	cli
     bb4:	a8 95       	wdr
     bb6:	80 93 60 00 	sts	0x0060, r24	; 0x800060 <__TEXT_REGION_LENGTH__+0x7e0060>
     bba:	0f be       	out	0x3f, r0	; 63
     bbc:	90 93 60 00 	sts	0x0060, r25	; 0x800060 <__TEXT_REGION_LENGTH__+0x7e0060>
     bc0:	0e 94 6b 07 	call	0xed6	; 0xed6 <terminal_reset>
     bc4:	ff cf       	rjmp	.-2      	; 0xbc4 <__stack+0x2c5>
     bc6:	0e 94 e9 0d 	call	0x1bd2	; 0x1bd2 <uart_lower_case>
     bca:	f2 01       	movw	r30, r4
     bcc:	80 83       	st	Z, r24
     bce:	0e 94 a5 0c 	call	0x194a	; 0x194a <uart_putc>
     bd2:	c2 56       	subi	r28, 0x62	; 98
     bd4:	de 4f       	sbci	r29, 0xFE	; 254
     bd6:	88 81       	ld	r24, Y
     bd8:	99 81       	ldd	r25, Y+1	; 0x01
     bda:	ce 59       	subi	r28, 0x9E	; 158
     bdc:	d1 40       	sbci	r29, 0x01	; 1
     bde:	0e 94 f5 0d 	call	0x1bea	; 0x1bea <uart_gets>
     be2:	81 11       	cpse	r24, r1
     be4:	64 cf       	rjmp	.-312    	; 0xaae <__stack+0x1af>
     be6:	8e e7       	ldi	r24, 0x7E	; 126
     be8:	90 e0       	ldi	r25, 0x00	; 0
     bea:	0e 94 c6 0c 	call	0x198c	; 0x198c <uart_puts_P>
     bee:	8c e7       	ldi	r24, 0x7C	; 124
     bf0:	90 e0       	ldi	r25, 0x00	; 0
     bf2:	0e 94 c6 0c 	call	0x198c	; 0x198c <uart_puts_P>
     bf6:	87 e7       	ldi	r24, 0x77	; 119
     bf8:	90 e0       	ldi	r25, 0x00	; 0
     bfa:	0e 94 c6 0c 	call	0x198c	; 0x198c <uart_puts_P>
     bfe:	d7 ce       	rjmp	.-594    	; 0x9ae <__stack+0xaf>
     c00:	67 e3       	ldi	r22, 0x37	; 55
     c02:	71 e0       	ldi	r23, 0x01	; 1
     c04:	c2 01       	movw	r24, r4
     c06:	0e 94 d5 0c 	call	0x19aa	; 0x19aa <uart_strings_equal>
     c0a:	81 11       	cpse	r24, r1
     c0c:	5f cf       	rjmp	.-322    	; 0xacc <__stack+0x1cd>
     c0e:	5f cf       	rjmp	.-322    	; 0xace <__stack+0x1cf>
     c10:	15 ff       	sbrs	r17, 5
     c12:	48 c0       	rjmp	.+144    	; 0xca4 <__stack+0x3a5>
     c14:	88 20       	and	r8, r8
     c16:	09 f4       	brne	.+2      	; 0xc1a <__stack+0x31b>
     c18:	45 c0       	rjmp	.+138    	; 0xca4 <__stack+0x3a5>
     c1a:	f1 e0       	ldi	r31, 0x01	; 1
     c1c:	fd 15       	cp	r31, r13
     c1e:	08 f0       	brcs	.+2      	; 0xc22 <__stack+0x323>
     c20:	41 c0       	rjmp	.+130    	; 0xca4 <__stack+0x3a5>
     c22:	28 2d       	mov	r18, r8
     c24:	21 50       	subi	r18, 0x01	; 1
     c26:	33 0b       	sbc	r19, r19
     c28:	c9 01       	movw	r24, r18
     c2a:	ef e8       	ldi	r30, 0x8F	; 143
     c2c:	f1 e0       	ldi	r31, 0x01	; 1
     c2e:	ec 0f       	add	r30, r28
     c30:	fd 1f       	adc	r31, r29
     c32:	e2 0f       	add	r30, r18
     c34:	f3 1f       	adc	r31, r19
     c36:	20 81       	ld	r18, Z
     c38:	22 23       	and	r18, r18
     c3a:	09 f4       	brne	.+2      	; 0xc3e <__stack+0x33f>
     c3c:	f4 c0       	rjmp	.+488    	; 0xe26 <__stack+0x527>
     c3e:	4f e0       	ldi	r20, 0x0F	; 15
     c40:	48 9f       	mul	r20, r24
     c42:	90 01       	movw	r18, r0
     c44:	49 9f       	mul	r20, r25
     c46:	30 0d       	add	r19, r0
     c48:	11 24       	eor	r1, r1
     c4a:	f9 01       	movw	r30, r18
     c4c:	ed 0d       	add	r30, r13
     c4e:	f1 1d       	adc	r31, r1
     c50:	32 97       	sbiw	r30, 0x02	; 2
     c52:	ee 0f       	add	r30, r30
     c54:	ff 1f       	adc	r31, r31
     c56:	e2 0d       	add	r30, r2
     c58:	f3 1d       	adc	r31, r3
     c5a:	80 81       	ld	r24, Z
     c5c:	91 81       	ldd	r25, Z+1	; 0x01
     c5e:	80 36       	cpi	r24, 0x60	; 96
     c60:	ea ee       	ldi	r30, 0xEA	; 234
     c62:	9e 07       	cpc	r25, r30
     c64:	09 f4       	brne	.+2      	; 0xc68 <__stack+0x369>
     c66:	08 c1       	rjmp	.+528    	; 0xe78 <__stack+0x579>
     c68:	40 91 92 01 	lds	r20, 0x0192	; 0x800192 <timerval>
     c6c:	50 91 93 01 	lds	r21, 0x0193	; 0x800193 <timerval+0x1>
     c70:	48 17       	cp	r20, r24
     c72:	59 07       	cpc	r21, r25
     c74:	b8 f0       	brcs	.+46     	; 0xca4 <__stack+0x3a5>
     c76:	81 e0       	ldi	r24, 0x01	; 1
     c78:	8d 0d       	add	r24, r13
     c7a:	e8 2f       	mov	r30, r24
     c7c:	f0 e0       	ldi	r31, 0x00	; 0
     c7e:	e2 50       	subi	r30, 0x02	; 2
     c80:	f0 48       	sbci	r31, 0x80	; 128
     c82:	e2 0f       	add	r30, r18
     c84:	f3 1f       	adc	r31, r19
     c86:	ee 0f       	add	r30, r30
     c88:	ff 1f       	adc	r31, r31
     c8a:	e2 0d       	add	r30, r2
     c8c:	f3 1d       	adc	r31, r3
     c8e:	b1 2c       	mov	r11, r1
     c90:	9b 2d       	mov	r25, r11
     c92:	98 0f       	add	r25, r24
     c94:	91 31       	cpi	r25, 0x11	; 17
     c96:	28 f4       	brcc	.+10     	; 0xca2 <__stack+0x3a3>
     c98:	21 91       	ld	r18, Z+
     c9a:	31 91       	ld	r19, Z+
     c9c:	23 2b       	or	r18, r19
     c9e:	09 f4       	brne	.+2      	; 0xca2 <__stack+0x3a3>
     ca0:	c0 c0       	rjmp	.+384    	; 0xe22 <__stack+0x523>
     ca2:	14 60       	ori	r17, 0x04	; 4
     ca4:	80 91 96 01 	lds	r24, 0x0196	; 0x800196 <trigger_flag>
     ca8:	88 23       	and	r24, r24
     caa:	c9 f0       	breq	.+50     	; 0xcde <__stack+0x3df>
     cac:	cf b6       	in	r12, 0x3f	; 63
     cae:	f8 94       	cli
     cb0:	10 92 96 01 	sts	0x0196, r1	; 0x800196 <trigger_flag>
     cb4:	15 fd       	sbrc	r17, 5
     cb6:	12 c0       	rjmp	.+36     	; 0xcdc <__stack+0x3dd>
     cb8:	0e 94 01 03 	call	0x602	; 0x602 <led_green_on>
     cbc:	80 91 95 01 	lds	r24, 0x0195	; 0x800195 <key_flag>
     cc0:	81 11       	cpse	r24, r1
     cc2:	0c c0       	rjmp	.+24     	; 0xcdc <__stack+0x3dd>
     cc4:	99 20       	and	r9, r9
     cc6:	09 f4       	brne	.+2      	; 0xcca <__stack+0x3cb>
     cc8:	cf c0       	rjmp	.+414    	; 0xe68 <__stack+0x569>
     cca:	14 60       	ori	r17, 0x04	; 4
     ccc:	88 20       	and	r8, r8
     cce:	31 f0       	breq	.+12     	; 0xcdc <__stack+0x3dd>
     cd0:	10 62       	ori	r17, 0x20	; 32
     cd2:	80 91 6d 00 	lds	r24, 0x006D	; 0x80006d <__TEXT_REGION_LENGTH__+0x7e006d>
     cd6:	8b 7f       	andi	r24, 0xFB	; 251
     cd8:	80 93 6d 00 	sts	0x006D, r24	; 0x80006d <__TEXT_REGION_LENGTH__+0x7e006d>
     cdc:	cf be       	out	0x3f, r12	; 63
     cde:	12 ff       	sbrs	r17, 2
     ce0:	3d c0       	rjmp	.+122    	; 0xd5c <__stack+0x45d>
     ce2:	6f b6       	in	r6, 0x3f	; 63
     ce4:	f8 94       	cli
     ce6:	1b 7f       	andi	r17, 0xFB	; 251
     ce8:	99 20       	and	r9, r9
     cea:	b9 f1       	breq	.+110    	; 0xd5a <__stack+0x45b>
     cec:	dd 20       	and	r13, r13
     cee:	a9 f1       	breq	.+106    	; 0xd5a <__stack+0x45b>
     cf0:	20 e1       	ldi	r18, 0x10	; 16
     cf2:	2d 15       	cp	r18, r13
     cf4:	90 f1       	brcs	.+100    	; 0xd5a <__stack+0x45b>
     cf6:	10 61       	ori	r17, 0x10	; 16
     cf8:	0e 94 08 03 	call	0x610	; 0x610 <led_orange_on>
     cfc:	77 24       	eor	r7, r7
     cfe:	73 94       	inc	r7
     d00:	7d 0c       	add	r7, r13
     d02:	7b 0c       	add	r7, r11
     d04:	20 e1       	ldi	r18, 0x10	; 16
     d06:	30 e0       	ldi	r19, 0x00	; 0
     d08:	90 e0       	ldi	r25, 0x00	; 0
     d0a:	80 e0       	ldi	r24, 0x00	; 0
     d0c:	4d 2d       	mov	r20, r13
     d0e:	50 e0       	ldi	r21, 0x00	; 0
     d10:	88 0f       	add	r24, r24
     d12:	99 1f       	adc	r25, r25
     d14:	ba 01       	movw	r22, r20
     d16:	6b 0d       	add	r22, r11
     d18:	71 1d       	adc	r23, r1
     d1a:	62 17       	cp	r22, r18
     d1c:	73 07       	cpc	r23, r19
     d1e:	19 f4       	brne	.+6      	; 0xd26 <__stack+0x427>
     d20:	81 60       	ori	r24, 0x01	; 1
     d22:	b1 10       	cpse	r11, r1
     d24:	ba 94       	dec	r11
     d26:	21 50       	subi	r18, 0x01	; 1
     d28:	31 09       	sbc	r19, r1
     d2a:	91 f7       	brne	.-28     	; 0xd10 <__stack+0x411>
     d2c:	c0 90 90 01 	lds	r12, 0x0190	; 0x800190 <__data_end>
     d30:	d0 90 91 01 	lds	r13, 0x0191	; 0x800191 <__data_end+0x1>
     d34:	c8 2a       	or	r12, r24
     d36:	d9 2a       	or	r13, r25
     d38:	45 9a       	sbi	0x08, 5	; 8
     d3a:	c6 01       	movw	r24, r12
     d3c:	0e 94 53 03 	call	0x6a6	; 0x6a6 <sr_shiftout>
     d40:	d0 92 91 01 	sts	0x0191, r13	; 0x800191 <__data_end+0x1>
     d44:	c0 92 90 01 	sts	0x0190, r12	; 0x800190 <__data_end>
     d48:	10 92 93 01 	sts	0x0193, r1	; 0x800193 <timerval+0x1>
     d4c:	10 92 92 01 	sts	0x0192, r1	; 0x800192 <timerval>
     d50:	0e 94 55 0c 	call	0x18aa	; 0x18aa <timer1_reset>
     d54:	0e 94 49 0c 	call	0x1892	; 0x1892 <timer1_on>
     d58:	d7 2c       	mov	r13, r7
     d5a:	6f be       	out	0x3f, r6	; 63
     d5c:	14 ff       	sbrs	r17, 4
     d5e:	35 c0       	rjmp	.+106    	; 0xdca <__stack+0x4cb>
     d60:	80 91 94 01 	lds	r24, 0x0194	; 0x800194 <channel_monitor>
     d64:	88 23       	and	r24, r24
     d66:	89 f1       	breq	.+98     	; 0xdca <__stack+0x4cb>
     d68:	5f b7       	in	r21, 0x3f	; 63
     d6a:	f8 94       	cli
     d6c:	10 92 94 01 	sts	0x0194, r1	; 0x800194 <channel_monitor>
     d70:	13 fb       	bst	r17, 3
     d72:	44 27       	eor	r20, r20
     d74:	40 f9       	bld	r20, 0
     d76:	fe 01       	movw	r30, r28
     d78:	e1 58       	subi	r30, 0x81	; 129
     d7a:	fe 4f       	sbci	r31, 0xFE	; 254
     d7c:	81 e0       	ldi	r24, 0x01	; 1
     d7e:	90 e0       	ldi	r25, 0x00	; 0
     d80:	f1 2c       	mov	r15, r1
     d82:	e1 2c       	mov	r14, r1
     d84:	20 91 90 01 	lds	r18, 0x0190	; 0x800190 <__data_end>
     d88:	30 91 91 01 	lds	r19, 0x0191	; 0x800191 <__data_end+0x1>
     d8c:	28 23       	and	r18, r24
     d8e:	39 23       	and	r19, r25
     d90:	23 2b       	or	r18, r19
     d92:	31 f0       	breq	.+12     	; 0xda0 <__stack+0x4a1>
     d94:	20 81       	ld	r18, Z
     d96:	2f 5f       	subi	r18, 0xFF	; 255
     d98:	2a 15       	cp	r18, r10
     d9a:	08 f0       	brcs	.+2      	; 0xd9e <__stack+0x49f>
     d9c:	68 c0       	rjmp	.+208    	; 0xe6e <__stack+0x56f>
     d9e:	20 83       	st	Z, r18
     da0:	88 0f       	add	r24, r24
     da2:	99 1f       	adc	r25, r25
     da4:	31 96       	adiw	r30, 0x01	; 1
     da6:	c0 56       	subi	r28, 0x60	; 96
     da8:	de 4f       	sbci	r29, 0xFE	; 254
     daa:	28 81       	ld	r18, Y
     dac:	39 81       	ldd	r19, Y+1	; 0x01
     dae:	c0 5a       	subi	r28, 0xA0	; 160
     db0:	d1 40       	sbci	r29, 0x01	; 1
     db2:	2e 17       	cp	r18, r30
     db4:	3f 07       	cpc	r19, r31
     db6:	31 f7       	brne	.-52     	; 0xd84 <__stack+0x485>
     db8:	40 fb       	bst	r20, 0
     dba:	13 f9       	bld	r17, 3
     dbc:	80 91 90 01 	lds	r24, 0x0190	; 0x800190 <__data_end>
     dc0:	90 91 91 01 	lds	r25, 0x0191	; 0x800191 <__data_end+0x1>
     dc4:	e8 26       	eor	r14, r24
     dc6:	f9 26       	eor	r15, r25
     dc8:	5f bf       	out	0x3f, r21	; 63
     dca:	13 ff       	sbrs	r17, 3
     dcc:	b9 cd       	rjmp	.-1166   	; 0x940 <__stack+0x41>
     dce:	cf b6       	in	r12, 0x3f	; 63
     dd0:	f8 94       	cli
     dd2:	17 7f       	andi	r17, 0xF7	; 247
     dd4:	c7 01       	movw	r24, r14
     dd6:	0e 94 53 03 	call	0x6a6	; 0x6a6 <sr_shiftout>
     dda:	f0 92 91 01 	sts	0x0191, r15	; 0x800191 <__data_end+0x1>
     dde:	e0 92 90 01 	sts	0x0190, r14	; 0x800190 <__data_end>
     de2:	e1 14       	cp	r14, r1
     de4:	f1 04       	cpc	r15, r1
     de6:	21 f4       	brne	.+8      	; 0xdf0 <__stack+0x4f1>
     de8:	45 98       	cbi	0x08, 5	; 8
     dea:	1f 7e       	andi	r17, 0xEF	; 239
     dec:	0e 94 0d 03 	call	0x61a	; 0x61a <led_orange_off>
     df0:	30 e1       	ldi	r19, 0x10	; 16
     df2:	3d 15       	cp	r19, r13
     df4:	58 f4       	brcc	.+22     	; 0xe0c <__stack+0x50d>
     df6:	1f 7d       	andi	r17, 0xDF	; 223
     df8:	0e 94 4f 0c 	call	0x189e	; 0x189e <timer1_off>
     dfc:	0e 94 55 0c 	call	0x18aa	; 0x18aa <timer1_reset>
     e00:	10 92 93 01 	sts	0x0193, r1	; 0x800193 <timerval+0x1>
     e04:	10 92 92 01 	sts	0x0192, r1	; 0x800192 <timerval>
     e08:	dd 24       	eor	r13, r13
     e0a:	d3 94       	inc	r13
     e0c:	15 fd       	sbrc	r17, 5
     e0e:	07 c0       	rjmp	.+14     	; 0xe1e <__stack+0x51f>
     e10:	0e 94 06 03 	call	0x60c	; 0x60c <led_green_off>
     e14:	80 91 6d 00 	lds	r24, 0x006D	; 0x80006d <__TEXT_REGION_LENGTH__+0x7e006d>
     e18:	84 60       	ori	r24, 0x04	; 4
     e1a:	80 93 6d 00 	sts	0x006D, r24	; 0x80006d <__TEXT_REGION_LENGTH__+0x7e006d>
     e1e:	cf be       	out	0x3f, r12	; 63
     e20:	8f cd       	rjmp	.-1250   	; 0x940 <__stack+0x41>
     e22:	b3 94       	inc	r11
     e24:	35 cf       	rjmp	.-406    	; 0xc90 <__stack+0x391>
     e26:	88 0f       	add	r24, r24
     e28:	99 1f       	adc	r25, r25
     e2a:	e9 e6       	ldi	r30, 0x69	; 105
     e2c:	f1 e0       	ldi	r31, 0x01	; 1
     e2e:	ec 0f       	add	r30, r28
     e30:	fd 1f       	adc	r31, r29
     e32:	e8 0f       	add	r30, r24
     e34:	f9 1f       	adc	r31, r25
     e36:	80 81       	ld	r24, Z
     e38:	91 81       	ldd	r25, Z+1	; 0x01
     e3a:	80 36       	cpi	r24, 0x60	; 96
     e3c:	fa ee       	ldi	r31, 0xEA	; 234
     e3e:	9f 07       	cpc	r25, r31
     e40:	d9 f0       	breq	.+54     	; 0xe78 <__stack+0x579>
     e42:	40 91 92 01 	lds	r20, 0x0192	; 0x800192 <timerval>
     e46:	50 91 93 01 	lds	r21, 0x0193	; 0x800193 <timerval+0x1>
     e4a:	48 17       	cp	r20, r24
     e4c:	59 07       	cpc	r21, r25
     e4e:	08 f4       	brcc	.+2      	; 0xe52 <__stack+0x553>
     e50:	29 cf       	rjmp	.-430    	; 0xca4 <__stack+0x3a5>
     e52:	31 e0       	ldi	r19, 0x01	; 1
     e54:	3d 0d       	add	r19, r13
     e56:	89 2b       	or	r24, r25
     e58:	21 f4       	brne	.+8      	; 0xe62 <__stack+0x563>
     e5a:	21 e0       	ldi	r18, 0x01	; 1
     e5c:	31 31       	cpi	r19, 0x11	; 17
     e5e:	08 f0       	brcs	.+2      	; 0xe62 <__stack+0x563>
     e60:	20 e0       	ldi	r18, 0x00	; 0
     e62:	14 60       	ori	r17, 0x04	; 4
     e64:	b2 2e       	mov	r11, r18
     e66:	1e cf       	rjmp	.-452    	; 0xca4 <__stack+0x3a5>
     e68:	0e 94 06 03 	call	0x60c	; 0x60c <led_green_off>
     e6c:	37 cf       	rjmp	.-402    	; 0xcdc <__stack+0x3dd>
     e6e:	e8 2a       	or	r14, r24
     e70:	f9 2a       	or	r15, r25
     e72:	10 82       	st	Z, r1
     e74:	41 e0       	ldi	r20, 0x01	; 1
     e76:	94 cf       	rjmp	.-216    	; 0xda0 <__stack+0x4a1>
     e78:	1f 7d       	andi	r17, 0xDF	; 223
     e7a:	80 91 6d 00 	lds	r24, 0x006D	; 0x80006d <__TEXT_REGION_LENGTH__+0x7e006d>
     e7e:	84 60       	ori	r24, 0x04	; 4
     e80:	80 93 6d 00 	sts	0x006D, r24	; 0x80006d <__TEXT_REGION_LENGTH__+0x7e006d>
     e84:	0f cf       	rjmp	.-482    	; 0xca4 <__stack+0x3a5>

00000e86 <__vector_11>:
     e86:	8f 93       	push	r24
     e88:	8f b7       	in	r24, 0x3f	; 63
     e8a:	8f 93       	push	r24
     e8c:	9f 93       	push	r25
     e8e:	80 91 92 01 	lds	r24, 0x0192	; 0x800192 <timerval>
     e92:	90 91 93 01 	lds	r25, 0x0193	; 0x800193 <timerval+0x1>
     e96:	01 96       	adiw	r24, 0x01	; 1
     e98:	90 93 93 01 	sts	0x0193, r25	; 0x800193 <timerval+0x1>
     e9c:	80 93 92 01 	sts	0x0192, r24	; 0x800192 <timerval>
     ea0:	80 91 90 01 	lds	r24, 0x0190	; 0x800190 <__data_end>
     ea4:	90 91 91 01 	lds	r25, 0x0191	; 0x800191 <__data_end+0x1>
     ea8:	00 97       	sbiw	r24, 0x00	; 0
     eaa:	19 f0       	breq	.+6      	; 0xeb2 <__vector_11+0x2c>
     eac:	81 e0       	ldi	r24, 0x01	; 1
     eae:	80 93 94 01 	sts	0x0194, r24	; 0x800194 <channel_monitor>
     eb2:	9f 91       	pop	r25
     eb4:	8f 91       	pop	r24
     eb6:	8f bf       	out	0x3f, r24	; 63
     eb8:	8f 91       	pop	r24
     eba:	18 95       	reti

00000ebc <__vector_5>:
     ebc:	8f 93       	push	r24
     ebe:	81 e0       	ldi	r24, 0x01	; 1
     ec0:	4a 9b       	sbis	0x09, 2	; 9
     ec2:	06 c0       	rjmp	.+12     	; 0xed0 <__vector_5+0x14>
     ec4:	4b 99       	sbic	0x09, 3	; 9
     ec6:	04 c0       	rjmp	.+8      	; 0xed0 <__vector_5+0x14>
     ec8:	80 93 96 01 	sts	0x0196, r24	; 0x800196 <trigger_flag>
     ecc:	8f 91       	pop	r24
     ece:	18 95       	reti
     ed0:	80 93 95 01 	sts	0x0195, r24	; 0x800195 <key_flag>
     ed4:	fb cf       	rjmp	.-10     	; 0xecc <__vector_5+0x10>

00000ed6 <terminal_reset>:
     ed6:	84 e0       	ldi	r24, 0x04	; 4
     ed8:	94 e0       	ldi	r25, 0x04	; 4
     eda:	0e 94 c6 0c 	call	0x198c	; 0x198c <uart_puts_P>
     ede:	8d ef       	ldi	r24, 0xFD	; 253
     ee0:	93 e0       	ldi	r25, 0x03	; 3
     ee2:	0e 94 c6 0c 	call	0x198c	; 0x198c <uart_puts_P>
     ee6:	88 ef       	ldi	r24, 0xF8	; 248
     ee8:	93 e0       	ldi	r25, 0x03	; 3
     eea:	0e 94 c6 0c 	call	0x198c	; 0x198c <uart_puts_P>
     eee:	88 ee       	ldi	r24, 0xE8	; 232
     ef0:	93 e0       	ldi	r25, 0x03	; 3
     ef2:	0c 94 c6 0c 	jmp	0x198c	; 0x198c <uart_puts_P>

00000ef6 <fixedspace>:
     ef6:	8f 92       	push	r8
     ef8:	9f 92       	push	r9
     efa:	af 92       	push	r10
     efc:	bf 92       	push	r11
     efe:	cf 92       	push	r12
     f00:	df 92       	push	r13
     f02:	ef 92       	push	r14
     f04:	ff 92       	push	r15
     f06:	1f 93       	push	r17
     f08:	cf 93       	push	r28
     f0a:	df 93       	push	r29
     f0c:	6b 01       	movw	r12, r22
     f0e:	7c 01       	movw	r14, r24
     f10:	14 2f       	mov	r17, r20
     f12:	c2 2f       	mov	r28, r18
     f14:	ac 01       	movw	r20, r24
     f16:	9b 01       	movw	r18, r22
     f18:	d0 e0       	ldi	r29, 0x00	; 0
     f1a:	8a e0       	ldi	r24, 0x0A	; 10
     f1c:	88 2e       	mov	r8, r24
     f1e:	91 2c       	mov	r9, r1
     f20:	a1 2c       	mov	r10, r1
     f22:	b1 2c       	mov	r11, r1
     f24:	21 15       	cp	r18, r1
     f26:	31 05       	cpc	r19, r1
     f28:	41 05       	cpc	r20, r1
     f2a:	51 05       	cpc	r21, r1
     f2c:	b1 f4       	brne	.+44     	; 0xf5a <fixedspace+0x64>
     f2e:	f7 fe       	sbrs	r15, 7
     f30:	02 c0       	rjmp	.+4      	; 0xf36 <fixedspace+0x40>
     f32:	c1 11       	cpse	r28, r1
     f34:	c1 50       	subi	r28, 0x01	; 1
     f36:	cd 17       	cp	r28, r29
     f38:	c0 f4       	brcc	.+48     	; 0xf6a <fixedspace+0x74>
     f3a:	41 2f       	mov	r20, r17
     f3c:	c7 01       	movw	r24, r14
     f3e:	b6 01       	movw	r22, r12
     f40:	df 91       	pop	r29
     f42:	cf 91       	pop	r28
     f44:	1f 91       	pop	r17
     f46:	ff 90       	pop	r15
     f48:	ef 90       	pop	r14
     f4a:	df 90       	pop	r13
     f4c:	cf 90       	pop	r12
     f4e:	bf 90       	pop	r11
     f50:	af 90       	pop	r10
     f52:	9f 90       	pop	r9
     f54:	8f 90       	pop	r8
     f56:	0c 94 e4 0c 	jmp	0x19c8	; 0x19c8 <uart_shownum>
     f5a:	ca 01       	movw	r24, r20
     f5c:	b9 01       	movw	r22, r18
     f5e:	a5 01       	movw	r20, r10
     f60:	94 01       	movw	r18, r8
     f62:	0e 94 63 0e 	call	0x1cc6	; 0x1cc6 <__divmodsi4>
     f66:	df 5f       	subi	r29, 0xFF	; 255
     f68:	dd cf       	rjmp	.-70     	; 0xf24 <fixedspace+0x2e>
     f6a:	cd 1b       	sub	r28, r29
     f6c:	cc 23       	and	r28, r28
     f6e:	29 f3       	breq	.-54     	; 0xf3a <fixedspace+0x44>
     f70:	86 ee       	ldi	r24, 0xE6	; 230
     f72:	93 e0       	ldi	r25, 0x03	; 3
     f74:	0e 94 c6 0c 	call	0x198c	; 0x198c <uart_puts_P>
     f78:	c1 50       	subi	r28, 0x01	; 1
     f7a:	f8 cf       	rjmp	.-16     	; 0xf6c <fixedspace+0x76>

00000f7c <channel_setup>:
     f7c:	2f 92       	push	r2
     f7e:	3f 92       	push	r3
     f80:	4f 92       	push	r4
     f82:	5f 92       	push	r5
     f84:	6f 92       	push	r6
     f86:	7f 92       	push	r7
     f88:	8f 92       	push	r8
     f8a:	9f 92       	push	r9
     f8c:	af 92       	push	r10
     f8e:	bf 92       	push	r11
     f90:	cf 92       	push	r12
     f92:	df 92       	push	r13
     f94:	ef 92       	push	r14
     f96:	ff 92       	push	r15
     f98:	0f 93       	push	r16
     f9a:	1f 93       	push	r17
     f9c:	cf 93       	push	r28
     f9e:	df 93       	push	r29
     fa0:	cd b7       	in	r28, 0x3d	; 61
     fa2:	de b7       	in	r29, 0x3e	; 62
     fa4:	66 97       	sbiw	r28, 0x16	; 22
     fa6:	0f b6       	in	r0, 0x3f	; 63
     fa8:	f8 94       	cli
     faa:	de bf       	out	0x3e, r29	; 62
     fac:	0f be       	out	0x3f, r0	; 63
     fae:	cd bf       	out	0x3d, r28	; 61
     fb0:	5c 01       	movw	r10, r24
     fb2:	6b 01       	movw	r12, r22
     fb4:	7a 01       	movw	r14, r20
     fb6:	84 e0       	ldi	r24, 0x04	; 4
     fb8:	0e 94 73 02 	call	0x4e6	; 0x4e6 <adc_read>
     fbc:	58 2e       	mov	r5, r24
     fbe:	84 eb       	ldi	r24, 0xB4	; 180
     fc0:	93 e0       	ldi	r25, 0x03	; 3
     fc2:	0e 94 c6 0c 	call	0x198c	; 0x198c <uart_puts_P>
     fc6:	51 10       	cpse	r5, r1
     fc8:	25 c0       	rjmp	.+74     	; 0x1014 <channel_setup+0x98>
     fca:	8f ea       	ldi	r24, 0xAF	; 175
     fcc:	93 e0       	ldi	r25, 0x03	; 3
     fce:	0e 94 c6 0c 	call	0x198c	; 0x198c <uart_puts_P>
     fd2:	83 e8       	ldi	r24, 0x83	; 131
     fd4:	93 e0       	ldi	r25, 0x03	; 3
     fd6:	0e 94 c6 0c 	call	0x198c	; 0x198c <uart_puts_P>
     fda:	8d e7       	ldi	r24, 0x7D	; 125
     fdc:	93 e0       	ldi	r25, 0x03	; 3
     fde:	0e 94 c6 0c 	call	0x198c	; 0x198c <uart_puts_P>
     fe2:	66 96       	adiw	r28, 0x16	; 22
     fe4:	0f b6       	in	r0, 0x3f	; 63
     fe6:	f8 94       	cli
     fe8:	de bf       	out	0x3e, r29	; 62
     fea:	0f be       	out	0x3f, r0	; 63
     fec:	cd bf       	out	0x3d, r28	; 61
     fee:	df 91       	pop	r29
     ff0:	cf 91       	pop	r28
     ff2:	1f 91       	pop	r17
     ff4:	0f 91       	pop	r16
     ff6:	ff 90       	pop	r15
     ff8:	ef 90       	pop	r14
     ffa:	df 90       	pop	r13
     ffc:	cf 90       	pop	r12
     ffe:	bf 90       	pop	r11
    1000:	af 90       	pop	r10
    1002:	9f 90       	pop	r9
    1004:	8f 90       	pop	r8
    1006:	7f 90       	pop	r7
    1008:	6f 90       	pop	r6
    100a:	5f 90       	pop	r5
    100c:	4f 90       	pop	r4
    100e:	3f 90       	pop	r3
    1010:	2f 90       	pop	r2
    1012:	08 95       	ret
    1014:	65 2d       	mov	r22, r5
    1016:	70 e0       	ldi	r23, 0x00	; 0
    1018:	90 e0       	ldi	r25, 0x00	; 0
    101a:	80 e0       	ldi	r24, 0x00	; 0
    101c:	44 e6       	ldi	r20, 0x64	; 100
    101e:	0e 94 e4 0c 	call	0x19c8	; 0x19c8 <uart_shownum>
    1022:	22 24       	eor	r2, r2
    1024:	2a 94       	dec	r2
    1026:	25 0c       	add	r2, r5
    1028:	89 e7       	ldi	r24, 0x79	; 121
    102a:	93 e0       	ldi	r25, 0x03	; 3
    102c:	0e 94 c6 0c 	call	0x198c	; 0x198c <uart_puts_P>
    1030:	23 e7       	ldi	r18, 0x73	; 115
    1032:	22 16       	cp	r2, r18
    1034:	b1 f2       	breq	.-84     	; 0xfe2 <channel_setup+0x66>
    1036:	02 2d       	mov	r16, r2
    1038:	10 e0       	ldi	r17, 0x00	; 0
    103a:	e0 0e       	add	r14, r16
    103c:	f1 1e       	adc	r15, r17
    103e:	f7 01       	movw	r30, r14
    1040:	80 81       	ld	r24, Z
    1042:	81 11       	cpse	r24, r1
    1044:	32 c0       	rjmp	.+100    	; 0x10aa <channel_setup+0x12e>
    1046:	86 e6       	ldi	r24, 0x66	; 102
    1048:	93 e0       	ldi	r25, 0x03	; 3
    104a:	0e 94 c6 0c 	call	0x198c	; 0x198c <uart_puts_P>
    104e:	f8 01       	movw	r30, r16
    1050:	ee 0f       	add	r30, r30
    1052:	ff 1f       	adc	r31, r31
    1054:	ec 0d       	add	r30, r12
    1056:	fd 1d       	adc	r31, r13
    1058:	be 01       	movw	r22, r28
    105a:	65 5f       	subi	r22, 0xF5	; 245
    105c:	7f 4f       	sbci	r23, 0xFF	; 255
    105e:	80 81       	ld	r24, Z
    1060:	91 81       	ldd	r25, Z+1	; 0x01
    1062:	0e 94 06 0c 	call	0x180c	; 0x180c <timedisplay>
    1066:	ce 01       	movw	r24, r28
    1068:	0b 96       	adiw	r24, 0x0b	; 11
    106a:	0e 94 b6 0c 	call	0x196c	; 0x196c <uart_puts>
    106e:	82 e6       	ldi	r24, 0x62	; 98
    1070:	93 e0       	ldi	r25, 0x03	; 3
    1072:	0e 94 c6 0c 	call	0x198c	; 0x198c <uart_puts_P>
    1076:	8e ec       	ldi	r24, 0xCE	; 206
    1078:	92 e0       	ldi	r25, 0x02	; 2
    107a:	0e 94 c6 0c 	call	0x198c	; 0x198c <uart_puts_P>
    107e:	0e 94 94 0c 	call	0x1928	; 0x1928 <uart_getc>
    1082:	98 2e       	mov	r9, r24
    1084:	88 23       	and	r24, r24
    1086:	d9 f3       	breq	.-10     	; 0x107e <channel_setup+0x102>
    1088:	0e 94 a5 0c 	call	0x194a	; 0x194a <uart_putc>
    108c:	8b ec       	ldi	r24, 0xCB	; 203
    108e:	92 e0       	ldi	r25, 0x02	; 2
    1090:	0e 94 c6 0c 	call	0x198c	; 0x198c <uart_puts_P>
    1094:	89 2d       	mov	r24, r9
    1096:	80 62       	ori	r24, 0x20	; 32
    1098:	89 36       	cpi	r24, 0x69	; 105
    109a:	09 f4       	brne	.+2      	; 0x109e <channel_setup+0x122>
    109c:	60 c0       	rjmp	.+192    	; 0x115e <channel_setup+0x1e2>
    109e:	8d 36       	cpi	r24, 0x6D	; 109
    10a0:	09 f4       	brne	.+2      	; 0x10a4 <channel_setup+0x128>
    10a2:	37 c1       	rjmp	.+622    	; 0x1312 <channel_setup+0x396>
    10a4:	84 e0       	ldi	r24, 0x04	; 4
    10a6:	92 e0       	ldi	r25, 0x02	; 2
    10a8:	9a cf       	rjmp	.-204    	; 0xfde <channel_setup+0x62>
    10aa:	8b e4       	ldi	r24, 0x4B	; 75
    10ac:	93 e0       	ldi	r25, 0x03	; 3
    10ae:	0e 94 c6 0c 	call	0x198c	; 0x198c <uart_puts_P>
    10b2:	85 e3       	ldi	r24, 0x35	; 53
    10b4:	93 e0       	ldi	r25, 0x03	; 3
    10b6:	0e 94 c6 0c 	call	0x198c	; 0x198c <uart_puts_P>
    10ba:	ff e0       	ldi	r31, 0x0F	; 15
    10bc:	2f 9e       	mul	r2, r31
    10be:	40 01       	movw	r8, r0
    10c0:	11 24       	eor	r1, r1
    10c2:	88 0c       	add	r8, r8
    10c4:	99 1c       	adc	r9, r9
    10c6:	8a 0c       	add	r8, r10
    10c8:	9b 1c       	adc	r9, r11
    10ca:	41 2c       	mov	r4, r1
    10cc:	51 2c       	mov	r5, r1
    10ce:	32 01       	movw	r6, r4
    10d0:	43 94       	inc	r4
    10d2:	22 e0       	ldi	r18, 0x02	; 2
    10d4:	44 e6       	ldi	r20, 0x64	; 100
    10d6:	c3 01       	movw	r24, r6
    10d8:	b2 01       	movw	r22, r4
    10da:	0e 94 7b 07 	call	0xef6	; 0xef6 <fixedspace>
    10de:	82 e3       	ldi	r24, 0x32	; 50
    10e0:	93 e0       	ldi	r25, 0x03	; 3
    10e2:	0e 94 c6 0c 	call	0x198c	; 0x198c <uart_puts_P>
    10e6:	22 e0       	ldi	r18, 0x02	; 2
    10e8:	44 e6       	ldi	r20, 0x64	; 100
    10ea:	c3 01       	movw	r24, r6
    10ec:	b2 01       	movw	r22, r4
    10ee:	0e 94 7b 07 	call	0xef6	; 0xef6 <fixedspace>
    10f2:	80 e3       	ldi	r24, 0x30	; 48
    10f4:	93 e0       	ldi	r25, 0x03	; 3
    10f6:	0e 94 c6 0c 	call	0x198c	; 0x198c <uart_puts_P>
    10fa:	2f ef       	ldi	r18, 0xFF	; 255
    10fc:	42 1a       	sub	r4, r18
    10fe:	52 0a       	sbc	r5, r18
    1100:	62 0a       	sbc	r6, r18
    1102:	72 0a       	sbc	r7, r18
    1104:	22 e0       	ldi	r18, 0x02	; 2
    1106:	44 e6       	ldi	r20, 0x64	; 100
    1108:	c3 01       	movw	r24, r6
    110a:	b2 01       	movw	r22, r4
    110c:	0e 94 7b 07 	call	0xef6	; 0xef6 <fixedspace>
    1110:	8c e2       	ldi	r24, 0x2C	; 44
    1112:	93 e0       	ldi	r25, 0x03	; 3
    1114:	0e 94 c6 0c 	call	0x198c	; 0x198c <uart_puts_P>
    1118:	f4 01       	movw	r30, r8
    111a:	81 91       	ld	r24, Z+
    111c:	91 91       	ld	r25, Z+
    111e:	4f 01       	movw	r8, r30
    1120:	80 36       	cpi	r24, 0x60	; 96
    1122:	fa ee       	ldi	r31, 0xEA	; 234
    1124:	9f 07       	cpc	r25, r31
    1126:	b1 f0       	breq	.+44     	; 0x1154 <channel_setup+0x1d8>
    1128:	be 01       	movw	r22, r28
    112a:	65 5f       	subi	r22, 0xF5	; 245
    112c:	7f 4f       	sbci	r23, 0xFF	; 255
    112e:	0e 94 06 0c 	call	0x180c	; 0x180c <timedisplay>
    1132:	ce 01       	movw	r24, r28
    1134:	0b 96       	adiw	r24, 0x0b	; 11
    1136:	0e 94 b6 0c 	call	0x196c	; 0x196c <uart_puts>
    113a:	81 e2       	ldi	r24, 0x21	; 33
    113c:	93 e0       	ldi	r25, 0x03	; 3
    113e:	0e 94 c6 0c 	call	0x198c	; 0x198c <uart_puts_P>
    1142:	20 e1       	ldi	r18, 0x10	; 16
    1144:	42 16       	cp	r4, r18
    1146:	51 04       	cpc	r5, r1
    1148:	61 04       	cpc	r6, r1
    114a:	71 04       	cpc	r7, r1
    114c:	11 f6       	brne	.-124    	; 0x10d2 <channel_setup+0x156>
    114e:	8d e1       	ldi	r24, 0x1D	; 29
    1150:	93 e0       	ldi	r25, 0x03	; 3
    1152:	8f cf       	rjmp	.-226    	; 0x1072 <channel_setup+0xf6>
    1154:	84 e2       	ldi	r24, 0x24	; 36
    1156:	93 e0       	ldi	r25, 0x03	; 3
    1158:	0e 94 c6 0c 	call	0x198c	; 0x198c <uart_puts_P>
    115c:	ee cf       	rjmp	.-36     	; 0x113a <channel_setup+0x1be>
    115e:	f7 01       	movw	r30, r14
    1160:	80 81       	ld	r24, Z
    1162:	88 23       	and	r24, r24
    1164:	09 f4       	brne	.+2      	; 0x1168 <channel_setup+0x1ec>
    1166:	3e c0       	rjmp	.+124    	; 0x11e4 <channel_setup+0x268>
    1168:	8d e9       	ldi	r24, 0x9D	; 157
    116a:	92 e0       	ldi	r25, 0x02	; 2
    116c:	0e 94 c6 0c 	call	0x198c	; 0x198c <uart_puts_P>
    1170:	1e 8a       	std	Y+22, r1	; 0x16
    1172:	1d 8a       	std	Y+21, r1	; 0x15
    1174:	19 82       	std	Y+1, r1	; 0x01
    1176:	1a 82       	std	Y+2, r1	; 0x02
    1178:	1b 82       	std	Y+3, r1	; 0x03
    117a:	1c 82       	std	Y+4, r1	; 0x04
    117c:	ce 01       	movw	r24, r28
    117e:	01 96       	adiw	r24, 0x01	; 1
    1180:	4c 01       	movw	r8, r24
    1182:	3c 01       	movw	r6, r24
    1184:	e3 e0       	ldi	r30, 0x03	; 3
    1186:	4e 2e       	mov	r4, r30
    1188:	48 0e       	add	r4, r24
    118a:	0e 94 94 0c 	call	0x1928	; 0x1928 <uart_getc>
    118e:	90 ed       	ldi	r25, 0xD0	; 208
    1190:	98 0f       	add	r25, r24
    1192:	9a 30       	cpi	r25, 0x0A	; 10
    1194:	28 f0       	brcs	.+10     	; 0x11a0 <channel_setup+0x224>
    1196:	8a 30       	cpi	r24, 0x0A	; 10
    1198:	11 f0       	breq	.+4      	; 0x119e <channel_setup+0x222>
    119a:	8d 30       	cpi	r24, 0x0D	; 13
    119c:	19 f4       	brne	.+6      	; 0x11a4 <channel_setup+0x228>
    119e:	80 e0       	ldi	r24, 0x00	; 0
    11a0:	f3 01       	movw	r30, r6
    11a2:	80 83       	st	Z, r24
    11a4:	f3 01       	movw	r30, r6
    11a6:	81 91       	ld	r24, Z+
    11a8:	3f 01       	movw	r6, r30
    11aa:	81 11       	cpse	r24, r1
    11ac:	79 c0       	rjmp	.+242    	; 0x12a0 <channel_setup+0x324>
    11ae:	ce 01       	movw	r24, r28
    11b0:	45 96       	adiw	r24, 0x15	; 21
    11b2:	9f 93       	push	r25
    11b4:	8f 93       	push	r24
    11b6:	88 e7       	ldi	r24, 0x78	; 120
    11b8:	91 e0       	ldi	r25, 0x01	; 1
    11ba:	9f 93       	push	r25
    11bc:	8f 93       	push	r24
    11be:	9f 92       	push	r9
    11c0:	8f 92       	push	r8
    11c2:	0e 94 a5 0e 	call	0x1d4a	; 0x1d4a <sscanf>
    11c6:	6d 89       	ldd	r22, Y+21	; 0x15
    11c8:	7e 89       	ldd	r23, Y+22	; 0x16
    11ca:	cb 01       	movw	r24, r22
    11cc:	01 97       	sbiw	r24, 0x01	; 1
    11ce:	0f 90       	pop	r0
    11d0:	0f 90       	pop	r0
    11d2:	0f 90       	pop	r0
    11d4:	0f 90       	pop	r0
    11d6:	0f 90       	pop	r0
    11d8:	0f 90       	pop	r0
    11da:	44 24       	eor	r4, r4
    11dc:	4a 94       	dec	r4
    11de:	46 0e       	add	r4, r22
    11e0:	0f 97       	sbiw	r24, 0x0f	; 15
    11e2:	30 f0       	brcs	.+12     	; 0x11f0 <channel_setup+0x274>
    11e4:	f7 01       	movw	r30, r14
    11e6:	80 81       	ld	r24, Z
    11e8:	81 11       	cpse	r24, r1
    11ea:	5c cf       	rjmp	.-328    	; 0x10a4 <channel_setup+0x128>
    11ec:	44 24       	eor	r4, r4
    11ee:	4a 94       	dec	r4
    11f0:	87 e5       	ldi	r24, 0x57	; 87
    11f2:	92 e0       	ldi	r25, 0x02	; 2
    11f4:	0e 94 c6 0c 	call	0x198c	; 0x198c <uart_puts_P>
    11f8:	ce 01       	movw	r24, r28
    11fa:	01 96       	adiw	r24, 0x01	; 1
    11fc:	4c 01       	movw	r8, r24
    11fe:	8a e0       	ldi	r24, 0x0A	; 10
    1200:	f4 01       	movw	r30, r8
    1202:	11 92       	st	Z+, r1
    1204:	8a 95       	dec	r24
    1206:	e9 f7       	brne	.-6      	; 0x1202 <channel_setup+0x286>
    1208:	34 01       	movw	r6, r8
    120a:	79 e0       	ldi	r23, 0x09	; 9
    120c:	37 2e       	mov	r3, r23
    120e:	38 0c       	add	r3, r8
    1210:	0e 94 94 0c 	call	0x1928	; 0x1928 <uart_getc>
    1214:	98 2f       	mov	r25, r24
    1216:	90 62       	ori	r25, 0x20	; 32
    1218:	94 37       	cpi	r25, 0x74	; 116
    121a:	09 f0       	breq	.+2      	; 0x121e <channel_setup+0x2a2>
    121c:	46 c0       	rjmp	.+140    	; 0x12aa <channel_setup+0x32e>
    121e:	84 e5       	ldi	r24, 0x54	; 84
    1220:	0e 94 a5 0c 	call	0x194a	; 0x194a <uart_putc>
    1224:	60 e6       	ldi	r22, 0x60	; 96
    1226:	86 2e       	mov	r8, r22
    1228:	6a ee       	ldi	r22, 0xEA	; 234
    122a:	96 2e       	mov	r9, r22
    122c:	8f e3       	ldi	r24, 0x3F	; 63
    122e:	92 e0       	ldi	r25, 0x02	; 2
    1230:	0e 94 c6 0c 	call	0x198c	; 0x198c <uart_puts_P>
    1234:	20 e6       	ldi	r18, 0x60	; 96
    1236:	82 16       	cp	r8, r18
    1238:	2a ee       	ldi	r18, 0xEA	; 234
    123a:	92 06       	cpc	r9, r18
    123c:	09 f4       	brne	.+2      	; 0x1240 <channel_setup+0x2c4>
    123e:	59 c0       	rjmp	.+178    	; 0x12f2 <channel_setup+0x376>
    1240:	be 01       	movw	r22, r28
    1242:	65 5f       	subi	r22, 0xF5	; 245
    1244:	7f 4f       	sbci	r23, 0xFF	; 255
    1246:	c4 01       	movw	r24, r8
    1248:	0e 94 06 0c 	call	0x180c	; 0x180c <timedisplay>
    124c:	ce 01       	movw	r24, r28
    124e:	0b 96       	adiw	r24, 0x0b	; 11
    1250:	0e 94 b6 0c 	call	0x196c	; 0x196c <uart_puts>
    1254:	83 e3       	ldi	r24, 0x33	; 51
    1256:	92 e0       	ldi	r25, 0x02	; 2
    1258:	0e 94 c6 0c 	call	0x198c	; 0x198c <uart_puts_P>
    125c:	f7 01       	movw	r30, r14
    125e:	80 81       	ld	r24, Z
    1260:	88 23       	and	r24, r24
    1262:	09 f4       	brne	.+2      	; 0x1266 <channel_setup+0x2ea>
    1264:	4b c0       	rjmp	.+150    	; 0x12fc <channel_setup+0x380>
    1266:	84 2d       	mov	r24, r4
    1268:	90 e0       	ldi	r25, 0x00	; 0
    126a:	9c 01       	movw	r18, r24
    126c:	ff e0       	ldi	r31, 0x0F	; 15
    126e:	2f 9e       	mul	r2, r31
    1270:	20 0d       	add	r18, r0
    1272:	31 1d       	adc	r19, r1
    1274:	11 24       	eor	r1, r1
    1276:	22 0f       	add	r18, r18
    1278:	33 1f       	adc	r19, r19
    127a:	a2 0e       	add	r10, r18
    127c:	b3 1e       	adc	r11, r19
    127e:	f5 01       	movw	r30, r10
    1280:	91 82       	std	Z+1, r9	; 0x01
    1282:	80 82       	st	Z, r8
    1284:	fe e1       	ldi	r31, 0x1E	; 30
    1286:	2f 9e       	mul	r2, r31
    1288:	b0 01       	movw	r22, r0
    128a:	11 24       	eor	r1, r1
    128c:	6d 5d       	subi	r22, 0xDD	; 221
    128e:	7f 4f       	sbci	r23, 0xFF	; 255
    1290:	88 0f       	add	r24, r24
    1292:	99 1f       	adc	r25, r25
    1294:	68 0f       	add	r22, r24
    1296:	79 1f       	adc	r23, r25
    1298:	c4 01       	movw	r24, r8
    129a:	0e 94 e2 02 	call	0x5c4	; 0x5c4 <eewrite16>
    129e:	02 cf       	rjmp	.-508    	; 0x10a4 <channel_setup+0x128>
    12a0:	0e 94 a5 0c 	call	0x194a	; 0x194a <uart_putc>
    12a4:	46 10       	cpse	r4, r6
    12a6:	71 cf       	rjmp	.-286    	; 0x118a <channel_setup+0x20e>
    12a8:	82 cf       	rjmp	.-252    	; 0x11ae <channel_setup+0x232>
    12aa:	90 ed       	ldi	r25, 0xD0	; 208
    12ac:	98 0f       	add	r25, r24
    12ae:	9a 30       	cpi	r25, 0x0A	; 10
    12b0:	50 f0       	brcs	.+20     	; 0x12c6 <channel_setup+0x34a>
    12b2:	8a 30       	cpi	r24, 0x0A	; 10
    12b4:	b9 f0       	breq	.+46     	; 0x12e4 <channel_setup+0x368>
    12b6:	8d 30       	cpi	r24, 0x0D	; 13
    12b8:	a9 f0       	breq	.+42     	; 0x12e4 <channel_setup+0x368>
    12ba:	8a 33       	cpi	r24, 0x3A	; 58
    12bc:	21 f0       	breq	.+8      	; 0x12c6 <channel_setup+0x34a>
    12be:	98 2f       	mov	r25, r24
    12c0:	9d 7f       	andi	r25, 0xFD	; 253
    12c2:	9c 32       	cpi	r25, 0x2C	; 44
    12c4:	11 f4       	brne	.+4      	; 0x12ca <channel_setup+0x34e>
    12c6:	f3 01       	movw	r30, r6
    12c8:	80 83       	st	Z, r24
    12ca:	f3 01       	movw	r30, r6
    12cc:	81 91       	ld	r24, Z+
    12ce:	3f 01       	movw	r6, r30
    12d0:	81 11       	cpse	r24, r1
    12d2:	0a c0       	rjmp	.+20     	; 0x12e8 <channel_setup+0x36c>
    12d4:	c4 01       	movw	r24, r8
    12d6:	0e 94 bf 0a 	call	0x157e	; 0x157e <timecalc>
    12da:	4c 01       	movw	r8, r24
    12dc:	01 96       	adiw	r24, 0x01	; 1
    12de:	09 f4       	brne	.+2      	; 0x12e2 <channel_setup+0x366>
    12e0:	e1 ce       	rjmp	.-574    	; 0x10a4 <channel_setup+0x128>
    12e2:	a4 cf       	rjmp	.-184    	; 0x122c <channel_setup+0x2b0>
    12e4:	80 e0       	ldi	r24, 0x00	; 0
    12e6:	ef cf       	rjmp	.-34     	; 0x12c6 <channel_setup+0x34a>
    12e8:	0e 94 a5 0c 	call	0x194a	; 0x194a <uart_putc>
    12ec:	36 10       	cpse	r3, r6
    12ee:	90 cf       	rjmp	.-224    	; 0x1210 <channel_setup+0x294>
    12f0:	f1 cf       	rjmp	.-30     	; 0x12d4 <channel_setup+0x358>
    12f2:	87 e3       	ldi	r24, 0x37	; 55
    12f4:	92 e0       	ldi	r25, 0x02	; 2
    12f6:	0e 94 c6 0c 	call	0x198c	; 0x198c <uart_puts_P>
    12fa:	ac cf       	rjmp	.-168    	; 0x1254 <channel_setup+0x2d8>
    12fc:	00 0f       	add	r16, r16
    12fe:	11 1f       	adc	r17, r17
    1300:	f6 01       	movw	r30, r12
    1302:	e0 0f       	add	r30, r16
    1304:	f1 1f       	adc	r31, r17
    1306:	91 82       	std	Z+1, r9	; 0x01
    1308:	80 82       	st	Z, r8
    130a:	b8 01       	movw	r22, r16
    130c:	63 5f       	subi	r22, 0xF3	; 243
    130e:	7f 4f       	sbci	r23, 0xFF	; 255
    1310:	c3 cf       	rjmp	.-122    	; 0x1298 <channel_setup+0x31c>
    1312:	8a e0       	ldi	r24, 0x0A	; 10
    1314:	92 e0       	ldi	r25, 0x02	; 2
    1316:	0e 94 c6 0c 	call	0x198c	; 0x198c <uart_puts_P>
    131a:	0e 94 94 0c 	call	0x1928	; 0x1928 <uart_getc>
    131e:	d8 2e       	mov	r13, r24
    1320:	88 23       	and	r24, r24
    1322:	d9 f3       	breq	.-10     	; 0x131a <channel_setup+0x39e>
    1324:	0e 94 a5 0c 	call	0x194a	; 0x194a <uart_putc>
    1328:	87 e0       	ldi	r24, 0x07	; 7
    132a:	92 e0       	ldi	r25, 0x02	; 2
    132c:	0e 94 c6 0c 	call	0x198c	; 0x198c <uart_puts_P>
    1330:	f7 01       	movw	r30, r14
    1332:	90 81       	ld	r25, Z
    1334:	8d 2d       	mov	r24, r13
    1336:	80 62       	ori	r24, 0x20	; 32
    1338:	86 36       	cpi	r24, 0x66	; 102
    133a:	61 f4       	brne	.+24     	; 0x1354 <channel_setup+0x3d8>
    133c:	10 82       	st	Z, r1
    133e:	f7 01       	movw	r30, r14
    1340:	80 81       	ld	r24, Z
    1342:	89 17       	cp	r24, r25
    1344:	09 f4       	brne	.+2      	; 0x1348 <channel_setup+0x3cc>
    1346:	ae ce       	rjmp	.-676    	; 0x10a4 <channel_setup+0x128>
    1348:	b8 01       	movw	r22, r16
    134a:	6e 5f       	subi	r22, 0xFE	; 254
    134c:	7f 4f       	sbci	r23, 0xFF	; 255
    134e:	0e 94 c8 02 	call	0x590	; 0x590 <eewrite>
    1352:	a8 ce       	rjmp	.-688    	; 0x10a4 <channel_setup+0x128>
    1354:	86 37       	cpi	r24, 0x76	; 118
    1356:	99 f7       	brne	.-26     	; 0x133e <channel_setup+0x3c2>
    1358:	81 e0       	ldi	r24, 0x01	; 1
    135a:	80 83       	st	Z, r24
    135c:	f0 cf       	rjmp	.-32     	; 0x133e <channel_setup+0x3c2>

0000135e <list_complete>:
    135e:	3f 92       	push	r3
    1360:	4f 92       	push	r4
    1362:	5f 92       	push	r5
    1364:	6f 92       	push	r6
    1366:	7f 92       	push	r7
    1368:	8f 92       	push	r8
    136a:	9f 92       	push	r9
    136c:	af 92       	push	r10
    136e:	bf 92       	push	r11
    1370:	cf 92       	push	r12
    1372:	df 92       	push	r13
    1374:	ef 92       	push	r14
    1376:	ff 92       	push	r15
    1378:	0f 93       	push	r16
    137a:	1f 93       	push	r17
    137c:	cf 93       	push	r28
    137e:	df 93       	push	r29
    1380:	cd b7       	in	r28, 0x3d	; 61
    1382:	de b7       	in	r29, 0x3e	; 62
    1384:	2c 97       	sbiw	r28, 0x0c	; 12
    1386:	0f b6       	in	r0, 0x3f	; 63
    1388:	f8 94       	cli
    138a:	de bf       	out	0x3e, r29	; 62
    138c:	0f be       	out	0x3f, r0	; 63
    138e:	cd bf       	out	0x3d, r28	; 61
    1390:	7c 01       	movw	r14, r24
    1392:	4b 01       	movw	r8, r22
    1394:	6a 01       	movw	r12, r20
    1396:	0e 94 6b 07 	call	0xed6	; 0xed6 <terminal_reset>
    139a:	89 ee       	ldi	r24, 0xE9	; 233
    139c:	91 e0       	ldi	r25, 0x01	; 1
    139e:	0e 94 c6 0c 	call	0x198c	; 0x198c <uart_puts_P>
    13a2:	80 ed       	ldi	r24, 0xD0	; 208
    13a4:	91 e0       	ldi	r25, 0x01	; 1
    13a6:	0e 94 c6 0c 	call	0x198c	; 0x198c <uart_puts_P>
    13aa:	82 eb       	ldi	r24, 0xB2	; 178
    13ac:	91 e0       	ldi	r25, 0x01	; 1
    13ae:	0e 94 c6 0c 	call	0x198c	; 0x198c <uart_puts_P>
    13b2:	84 e0       	ldi	r24, 0x04	; 4
    13b4:	0e 94 73 02 	call	0x4e6	; 0x4e6 <adc_read>
    13b8:	b8 2e       	mov	r11, r24
    13ba:	88 23       	and	r24, r24
    13bc:	09 f4       	brne	.+2      	; 0x13c0 <list_complete+0x62>
    13be:	8e c0       	rjmp	.+284    	; 0x14dc <list_complete+0x17e>
    13c0:	68 2f       	mov	r22, r24
    13c2:	70 e0       	ldi	r23, 0x00	; 0
    13c4:	90 e0       	ldi	r25, 0x00	; 0
    13c6:	80 e0       	ldi	r24, 0x00	; 0
    13c8:	44 e6       	ldi	r20, 0x64	; 100
    13ca:	0e 94 e4 0c 	call	0x19c8	; 0x19c8 <uart_shownum>
    13ce:	80 e9       	ldi	r24, 0x90	; 144
    13d0:	91 e0       	ldi	r25, 0x01	; 1
    13d2:	0e 94 c6 0c 	call	0x198c	; 0x198c <uart_puts_P>
    13d6:	86 e6       	ldi	r24, 0x66	; 102
    13d8:	91 e0       	ldi	r25, 0x01	; 1
    13da:	bb 20       	and	r11, r11
    13dc:	11 f0       	breq	.+4      	; 0x13e2 <list_complete+0x84>
    13de:	8c e6       	ldi	r24, 0x6C	; 108
    13e0:	91 e0       	ldi	r25, 0x01	; 1
    13e2:	0e 94 b6 0c 	call	0x196c	; 0x196c <uart_puts>
    13e6:	81 e7       	ldi	r24, 0x71	; 113
    13e8:	91 e0       	ldi	r25, 0x01	; 1
    13ea:	0e 94 c6 0c 	call	0x198c	; 0x198c <uart_puts_P>
    13ee:	86 01       	movw	r16, r12
    13f0:	67 01       	movw	r12, r14
    13f2:	41 2c       	mov	r4, r1
    13f4:	51 2c       	mov	r5, r1
    13f6:	32 01       	movw	r6, r4
    13f8:	43 94       	inc	r4
    13fa:	f1 2c       	mov	r15, r1
    13fc:	e1 2c       	mov	r14, r1
    13fe:	8b 2d       	mov	r24, r11
    1400:	81 50       	subi	r24, 0x01	; 1
    1402:	99 0b       	sbc	r25, r25
    1404:	9c 87       	std	Y+12, r25	; 0x0c
    1406:	8b 87       	std	Y+11, r24	; 0x0b
    1408:	eb 85       	ldd	r30, Y+11	; 0x0b
    140a:	fc 85       	ldd	r31, Y+12	; 0x0c
    140c:	86 e6       	ldi	r24, 0x66	; 102
    140e:	91 e0       	ldi	r25, 0x01	; 1
    1410:	ee 15       	cp	r30, r14
    1412:	ff 05       	cpc	r31, r15
    1414:	11 f0       	breq	.+4      	; 0x141a <list_complete+0xbc>
    1416:	8c e6       	ldi	r24, 0x6C	; 108
    1418:	91 e0       	ldi	r25, 0x01	; 1
    141a:	0e 94 b6 0c 	call	0x196c	; 0x196c <uart_puts>
    141e:	22 e0       	ldi	r18, 0x02	; 2
    1420:	44 e6       	ldi	r20, 0x64	; 100
    1422:	c3 01       	movw	r24, r6
    1424:	b2 01       	movw	r22, r4
    1426:	0e 94 7b 07 	call	0xef6	; 0xef6 <fixedspace>
    142a:	85 e6       	ldi	r24, 0x65	; 101
    142c:	91 e0       	ldi	r25, 0x01	; 1
    142e:	0e 94 c6 0c 	call	0x198c	; 0x198c <uart_puts_P>
    1432:	58 01       	movw	r10, r16
    1434:	f8 01       	movw	r30, r16
    1436:	80 81       	ld	r24, Z
    1438:	88 23       	and	r24, r24
    143a:	09 f4       	brne	.+2      	; 0x143e <list_complete+0xe0>
    143c:	54 c0       	rjmp	.+168    	; 0x14e6 <list_complete+0x188>
    143e:	8d e4       	ldi	r24, 0x4D	; 77
    1440:	91 e0       	ldi	r25, 0x01	; 1
    1442:	0e 94 c6 0c 	call	0x198c	; 0x198c <uart_puts_P>
    1446:	0f 5f       	subi	r16, 0xFF	; 255
    1448:	1f 4f       	sbci	r17, 0xFF	; 255
    144a:	f5 01       	movw	r30, r10
    144c:	80 81       	ld	r24, Z
    144e:	88 23       	and	r24, r24
    1450:	09 f4       	brne	.+2      	; 0x1454 <list_complete+0xf6>
    1452:	56 c0       	rjmp	.+172    	; 0x1500 <list_complete+0x1a2>
    1454:	56 01       	movw	r10, r12
    1456:	31 2c       	mov	r3, r1
    1458:	f5 01       	movw	r30, r10
    145a:	81 91       	ld	r24, Z+
    145c:	91 91       	ld	r25, Z+
    145e:	5f 01       	movw	r10, r30
    1460:	80 36       	cpi	r24, 0x60	; 96
    1462:	fa ee       	ldi	r31, 0xEA	; 234
    1464:	9f 07       	cpc	r25, r31
    1466:	09 f0       	breq	.+2      	; 0x146a <list_complete+0x10c>
    1468:	41 c0       	rjmp	.+130    	; 0x14ec <list_complete+0x18e>
    146a:	8d e3       	ldi	r24, 0x3D	; 61
    146c:	91 e0       	ldi	r25, 0x01	; 1
    146e:	0e 94 c6 0c 	call	0x198c	; 0x198c <uart_puts_P>
    1472:	2e e0       	ldi	r18, 0x0E	; 14
    1474:	8a e3       	ldi	r24, 0x3A	; 58
    1476:	91 e0       	ldi	r25, 0x01	; 1
    1478:	32 12       	cpse	r3, r18
    147a:	02 c0       	rjmp	.+4      	; 0x1480 <list_complete+0x122>
    147c:	86 e3       	ldi	r24, 0x36	; 54
    147e:	91 e0       	ldi	r25, 0x01	; 1
    1480:	0e 94 c6 0c 	call	0x198c	; 0x198c <uart_puts_P>
    1484:	33 94       	inc	r3
    1486:	8f e0       	ldi	r24, 0x0F	; 15
    1488:	38 12       	cpse	r3, r24
    148a:	e6 cf       	rjmp	.-52     	; 0x1458 <list_complete+0xfa>
    148c:	9f ef       	ldi	r25, 0xFF	; 255
    148e:	e9 1a       	sub	r14, r25
    1490:	f9 0a       	sbc	r15, r25
    1492:	ef ef       	ldi	r30, 0xFF	; 255
    1494:	4e 1a       	sub	r4, r30
    1496:	5e 0a       	sbc	r5, r30
    1498:	6e 0a       	sbc	r6, r30
    149a:	7e 0a       	sbc	r7, r30
    149c:	fe e1       	ldi	r31, 0x1E	; 30
    149e:	cf 0e       	add	r12, r31
    14a0:	d1 1c       	adc	r13, r1
    14a2:	2b e0       	ldi	r18, 0x0B	; 11
    14a4:	e2 16       	cp	r14, r18
    14a6:	f1 04       	cpc	r15, r1
    14a8:	09 f0       	breq	.+2      	; 0x14ac <list_complete+0x14e>
    14aa:	ae cf       	rjmp	.-164    	; 0x1408 <list_complete+0xaa>
    14ac:	2c 96       	adiw	r28, 0x0c	; 12
    14ae:	0f b6       	in	r0, 0x3f	; 63
    14b0:	f8 94       	cli
    14b2:	de bf       	out	0x3e, r29	; 62
    14b4:	0f be       	out	0x3f, r0	; 63
    14b6:	cd bf       	out	0x3d, r28	; 61
    14b8:	df 91       	pop	r29
    14ba:	cf 91       	pop	r28
    14bc:	1f 91       	pop	r17
    14be:	0f 91       	pop	r16
    14c0:	ff 90       	pop	r15
    14c2:	ef 90       	pop	r14
    14c4:	df 90       	pop	r13
    14c6:	cf 90       	pop	r12
    14c8:	bf 90       	pop	r11
    14ca:	af 90       	pop	r10
    14cc:	9f 90       	pop	r9
    14ce:	8f 90       	pop	r8
    14d0:	7f 90       	pop	r7
    14d2:	6f 90       	pop	r6
    14d4:	5f 90       	pop	r5
    14d6:	4f 90       	pop	r4
    14d8:	3f 90       	pop	r3
    14da:	08 95       	ret
    14dc:	80 eb       	ldi	r24, 0xB0	; 176
    14de:	91 e0       	ldi	r25, 0x01	; 1
    14e0:	0e 94 c6 0c 	call	0x198c	; 0x198c <uart_puts_P>
    14e4:	74 cf       	rjmp	.-280    	; 0x13ce <list_complete+0x70>
    14e6:	85 e4       	ldi	r24, 0x45	; 69
    14e8:	91 e0       	ldi	r25, 0x01	; 1
    14ea:	ab cf       	rjmp	.-170    	; 0x1442 <list_complete+0xe4>
    14ec:	be 01       	movw	r22, r28
    14ee:	6f 5f       	subi	r22, 0xFF	; 255
    14f0:	7f 4f       	sbci	r23, 0xFF	; 255
    14f2:	0e 94 06 0c 	call	0x180c	; 0x180c <timedisplay>
    14f6:	ce 01       	movw	r24, r28
    14f8:	01 96       	adiw	r24, 0x01	; 1
    14fa:	0e 94 b6 0c 	call	0x196c	; 0x196c <uart_puts>
    14fe:	b9 cf       	rjmp	.-142    	; 0x1472 <list_complete+0x114>
    1500:	f7 01       	movw	r30, r14
    1502:	ee 0f       	add	r30, r30
    1504:	ff 1f       	adc	r31, r31
    1506:	e8 0d       	add	r30, r8
    1508:	f9 1d       	adc	r31, r9
    150a:	be 01       	movw	r22, r28
    150c:	6f 5f       	subi	r22, 0xFF	; 255
    150e:	7f 4f       	sbci	r23, 0xFF	; 255
    1510:	80 81       	ld	r24, Z
    1512:	91 81       	ldd	r25, Z+1	; 0x01
    1514:	0e 94 06 0c 	call	0x180c	; 0x180c <timedisplay>
    1518:	ce 01       	movw	r24, r28
    151a:	01 96       	adiw	r24, 0x01	; 1
    151c:	0e 94 b6 0c 	call	0x196c	; 0x196c <uart_puts>
    1520:	82 e3       	ldi	r24, 0x32	; 50
    1522:	91 e0       	ldi	r25, 0x01	; 1
    1524:	0e 94 c6 0c 	call	0x198c	; 0x198c <uart_puts_P>
    1528:	b1 cf       	rjmp	.-158    	; 0x148c <list_complete+0x12e>

0000152a <igniter_setup>:
    152a:	cf 93       	push	r28
    152c:	df 93       	push	r29
    152e:	d8 2f       	mov	r29, r24
    1530:	85 ee       	ldi	r24, 0xE5	; 229
    1532:	90 e0       	ldi	r25, 0x00	; 0
    1534:	0e 94 c6 0c 	call	0x198c	; 0x198c <uart_puts_P>
    1538:	89 ed       	ldi	r24, 0xD9	; 217
    153a:	90 e0       	ldi	r25, 0x00	; 0
    153c:	d8 3c       	cpi	r29, 0xC8	; 200
    153e:	11 f0       	breq	.+4      	; 0x1544 <igniter_setup+0x1a>
    1540:	85 ec       	ldi	r24, 0xC5	; 197
    1542:	90 e0       	ldi	r25, 0x00	; 0
    1544:	0e 94 c6 0c 	call	0x198c	; 0x198c <uart_puts_P>
    1548:	86 e8       	ldi	r24, 0x86	; 134
    154a:	90 e0       	ldi	r25, 0x00	; 0
    154c:	0e 94 c6 0c 	call	0x198c	; 0x198c <uart_puts_P>
    1550:	0e 94 94 0c 	call	0x1928	; 0x1928 <uart_getc>
    1554:	c8 2f       	mov	r28, r24
    1556:	88 23       	and	r24, r24
    1558:	d9 f3       	breq	.-10     	; 0x1550 <igniter_setup+0x26>
    155a:	0e 94 a5 0c 	call	0x194a	; 0x194a <uart_putc>
    155e:	83 e8       	ldi	r24, 0x83	; 131
    1560:	90 e0       	ldi	r25, 0x00	; 0
    1562:	0e 94 c6 0c 	call	0x198c	; 0x198c <uart_puts_P>
    1566:	c0 62       	ori	r28, 0x20	; 32
    1568:	c5 36       	cpi	r28, 0x65	; 101
    156a:	39 f0       	breq	.+14     	; 0x157a <igniter_setup+0x50>
    156c:	c4 37       	cpi	r28, 0x74	; 116
    156e:	09 f4       	brne	.+2      	; 0x1572 <igniter_setup+0x48>
    1570:	d8 ec       	ldi	r29, 0xC8	; 200
    1572:	8d 2f       	mov	r24, r29
    1574:	df 91       	pop	r29
    1576:	cf 91       	pop	r28
    1578:	08 95       	ret
    157a:	d2 e0       	ldi	r29, 0x02	; 2
    157c:	fa cf       	rjmp	.-12     	; 0x1572 <igniter_setup+0x48>

0000157e <timecalc>:
    157e:	1f 93       	push	r17
    1580:	cf 93       	push	r28
    1582:	df 93       	push	r29
    1584:	00 d0       	rcall	.+0      	; 0x1586 <timecalc+0x8>
    1586:	00 d0       	rcall	.+0      	; 0x1588 <timecalc+0xa>
    1588:	00 d0       	rcall	.+0      	; 0x158a <timecalc+0xc>
    158a:	cd b7       	in	r28, 0x3d	; 61
    158c:	de b7       	in	r29, 0x3e	; 62
    158e:	fc 01       	movw	r30, r24
    1590:	1e 82       	std	Y+6, r1	; 0x06
    1592:	1d 82       	std	Y+5, r1	; 0x05
    1594:	1c 82       	std	Y+4, r1	; 0x04
    1596:	1b 82       	std	Y+3, r1	; 0x03
    1598:	1a 82       	std	Y+2, r1	; 0x02
    159a:	19 82       	std	Y+1, r1	; 0x01
    159c:	12 86       	std	Z+10, r1	; 0x0a
    159e:	dc 01       	movw	r26, r24
    15a0:	0d 90       	ld	r0, X+
    15a2:	00 20       	and	r0, r0
    15a4:	e9 f7       	brne	.-6      	; 0x15a0 <timecalc+0x22>
    15a6:	11 97       	sbiw	r26, 0x01	; 1
    15a8:	1a 2f       	mov	r17, r26
    15aa:	18 1b       	sub	r17, r24
    15ac:	19 30       	cpi	r17, 0x09	; 9
    15ae:	08 f0       	brcs	.+2      	; 0x15b2 <timecalc+0x34>
    15b0:	51 c0       	rjmp	.+162    	; 0x1654 <timecalc+0xd6>
    15b2:	11 11       	cpse	r17, r1
    15b4:	50 c0       	rjmp	.+160    	; 0x1656 <timecalc+0xd8>
    15b6:	8f ef       	ldi	r24, 0xFF	; 255
    15b8:	9f ef       	ldi	r25, 0xFF	; 255
    15ba:	14 c1       	rjmp	.+552    	; 0x17e4 <timecalc+0x266>
    15bc:	9e 32       	cpi	r25, 0x2E	; 46
    15be:	09 f0       	breq	.+2      	; 0x15c2 <timecalc+0x44>
    15c0:	42 c0       	rjmp	.+132    	; 0x1646 <timecalc+0xc8>
    15c2:	31 30       	cpi	r19, 0x01	; 1
    15c4:	09 f4       	brne	.+2      	; 0x15c8 <timecalc+0x4a>
    15c6:	41 c0       	rjmp	.+130    	; 0x164a <timecalc+0xcc>
    15c8:	24 2f       	mov	r18, r20
    15ca:	31 e0       	ldi	r19, 0x01	; 1
    15cc:	4f 5f       	subi	r20, 0xFF	; 255
    15ce:	14 13       	cpse	r17, r20
    15d0:	48 c0       	rjmp	.+144    	; 0x1662 <timecalc+0xe4>
    15d2:	33 23       	and	r19, r19
    15d4:	a1 f0       	breq	.+40     	; 0x15fe <timecalc+0x80>
    15d6:	bf 01       	movw	r22, r30
    15d8:	61 0f       	add	r22, r17
    15da:	71 1d       	adc	r23, r1
    15dc:	ab 01       	movw	r20, r22
    15de:	42 50       	subi	r20, 0x02	; 2
    15e0:	51 09       	sbc	r21, r1
    15e2:	da 01       	movw	r26, r20
    15e4:	9c 91       	ld	r25, X
    15e6:	9e 32       	cpi	r25, 0x2E	; 46
    15e8:	29 f4       	brne	.+10     	; 0x15f4 <timecalc+0x76>
    15ea:	90 e3       	ldi	r25, 0x30	; 48
    15ec:	db 01       	movw	r26, r22
    15ee:	9c 93       	st	X, r25
    15f0:	11 96       	adiw	r26, 0x01	; 1
    15f2:	1c 92       	st	X, r1
    15f4:	df 01       	movw	r26, r30
    15f6:	a2 0f       	add	r26, r18
    15f8:	b1 1d       	adc	r27, r1
    15fa:	13 96       	adiw	r26, 0x03	; 3
    15fc:	1c 92       	st	X, r1
    15fe:	88 0f       	add	r24, r24
    1600:	83 0f       	add	r24, r19
    1602:	90 81       	ld	r25, Z
    1604:	9a 33       	cpi	r25, 0x3A	; 58
    1606:	09 f0       	breq	.+2      	; 0x160a <timecalc+0x8c>
    1608:	3f c0       	rjmp	.+126    	; 0x1688 <timecalc+0x10a>
    160a:	82 30       	cpi	r24, 0x02	; 2
    160c:	09 f4       	brne	.+2      	; 0x1610 <timecalc+0x92>
    160e:	9d c0       	rjmp	.+314    	; 0x174a <timecalc+0x1cc>
    1610:	83 30       	cpi	r24, 0x03	; 3
    1612:	09 f4       	brne	.+2      	; 0x1616 <timecalc+0x98>
    1614:	5e c0       	rjmp	.+188    	; 0x16d2 <timecalc+0x154>
    1616:	81 30       	cpi	r24, 0x01	; 1
    1618:	09 f0       	breq	.+2      	; 0x161c <timecalc+0x9e>
    161a:	a9 c0       	rjmp	.+338    	; 0x176e <timecalc+0x1f0>
    161c:	ce 01       	movw	r24, r28
    161e:	01 96       	adiw	r24, 0x01	; 1
    1620:	9f 93       	push	r25
    1622:	8f 93       	push	r24
    1624:	02 96       	adiw	r24, 0x02	; 2
    1626:	9f 93       	push	r25
    1628:	8f 93       	push	r24
    162a:	85 e7       	ldi	r24, 0x75	; 117
    162c:	91 e0       	ldi	r25, 0x01	; 1
    162e:	9f 93       	push	r25
    1630:	8f 93       	push	r24
    1632:	ff 93       	push	r31
    1634:	ef 93       	push	r30
    1636:	0e 94 a5 0e 	call	0x1d4a	; 0x1d4a <sscanf>
    163a:	0f b6       	in	r0, 0x3f	; 63
    163c:	f8 94       	cli
    163e:	de bf       	out	0x3e, r29	; 62
    1640:	0f be       	out	0x3f, r0	; 63
    1642:	cd bf       	out	0x3d, r28	; 61
    1644:	40 c0       	rjmp	.+128    	; 0x16c6 <timecalc+0x148>
    1646:	9f 32       	cpi	r25, 0x2F	; 47
    1648:	c1 f4       	brne	.+48     	; 0x167a <timecalc+0xfc>
    164a:	88 e1       	ldi	r24, 0x18	; 24
    164c:	94 e0       	ldi	r25, 0x04	; 4
    164e:	0e 94 c6 0c 	call	0x198c	; 0x198c <uart_puts_P>
    1652:	b1 cf       	rjmp	.-158    	; 0x15b6 <timecalc+0x38>
    1654:	18 e0       	ldi	r17, 0x08	; 8
    1656:	bf 01       	movw	r22, r30
    1658:	40 e0       	ldi	r20, 0x00	; 0
    165a:	24 e1       	ldi	r18, 0x14	; 20
    165c:	30 e0       	ldi	r19, 0x00	; 0
    165e:	80 e0       	ldi	r24, 0x00	; 0
    1660:	5e e2       	ldi	r21, 0x2E	; 46
    1662:	db 01       	movw	r26, r22
    1664:	9c 91       	ld	r25, X
    1666:	9c 32       	cpi	r25, 0x2C	; 44
    1668:	09 f4       	brne	.+2      	; 0x166c <timecalc+0xee>
    166a:	5c 93       	st	X, r21
    166c:	db 01       	movw	r26, r22
    166e:	9d 91       	ld	r25, X+
    1670:	bd 01       	movw	r22, r26
    1672:	9a 33       	cpi	r25, 0x3A	; 58
    1674:	09 f0       	breq	.+2      	; 0x1678 <timecalc+0xfa>
    1676:	a2 cf       	rjmp	.-188    	; 0x15bc <timecalc+0x3e>
    1678:	8f 5f       	subi	r24, 0xFF	; 255
    167a:	9e 52       	subi	r25, 0x2E	; 46
    167c:	9d 30       	cpi	r25, 0x0D	; 13
    167e:	28 f7       	brcc	.-54     	; 0x164a <timecalc+0xcc>
    1680:	82 30       	cpi	r24, 0x02	; 2
    1682:	09 f0       	breq	.+2      	; 0x1686 <timecalc+0x108>
    1684:	a3 cf       	rjmp	.-186    	; 0x15cc <timecalc+0x4e>
    1686:	e1 cf       	rjmp	.-62     	; 0x164a <timecalc+0xcc>
    1688:	9e 32       	cpi	r25, 0x2E	; 46
    168a:	09 f0       	breq	.+2      	; 0x168e <timecalc+0x110>
    168c:	b8 c0       	rjmp	.+368    	; 0x17fe <timecalc+0x280>
    168e:	98 2f       	mov	r25, r24
    1690:	98 60       	ori	r25, 0x08	; 8
    1692:	82 30       	cpi	r24, 0x02	; 2
    1694:	09 f4       	brne	.+2      	; 0x1698 <timecalc+0x11a>
    1696:	59 c0       	rjmp	.+178    	; 0x174a <timecalc+0x1cc>
    1698:	83 30       	cpi	r24, 0x03	; 3
    169a:	c1 f0       	breq	.+48     	; 0x16cc <timecalc+0x14e>
    169c:	81 30       	cpi	r24, 0x01	; 1
    169e:	09 f0       	breq	.+2      	; 0x16a2 <timecalc+0x124>
    16a0:	66 c0       	rjmp	.+204    	; 0x176e <timecalc+0x1f0>
    16a2:	ce 01       	movw	r24, r28
    16a4:	01 96       	adiw	r24, 0x01	; 1
    16a6:	9f 93       	push	r25
    16a8:	8f 93       	push	r24
    16aa:	87 e7       	ldi	r24, 0x77	; 119
    16ac:	91 e0       	ldi	r25, 0x01	; 1
    16ae:	9f 93       	push	r25
    16b0:	8f 93       	push	r24
    16b2:	ff 93       	push	r31
    16b4:	ef 93       	push	r30
    16b6:	0e 94 a5 0e 	call	0x1d4a	; 0x1d4a <sscanf>
    16ba:	0f 90       	pop	r0
    16bc:	0f 90       	pop	r0
    16be:	0f 90       	pop	r0
    16c0:	0f 90       	pop	r0
    16c2:	0f 90       	pop	r0
    16c4:	0f 90       	pop	r0
    16c6:	1e 82       	std	Y+6, r1	; 0x06
    16c8:	1d 82       	std	Y+5, r1	; 0x05
    16ca:	17 c0       	rjmp	.+46     	; 0x16fa <timecalc+0x17c>
    16cc:	89 2f       	mov	r24, r25
    16ce:	82 ff       	sbrs	r24, 2
    16d0:	29 c0       	rjmp	.+82     	; 0x1724 <timecalc+0x1a6>
    16d2:	ce 01       	movw	r24, r28
    16d4:	01 96       	adiw	r24, 0x01	; 1
    16d6:	9f 93       	push	r25
    16d8:	8f 93       	push	r24
    16da:	02 96       	adiw	r24, 0x02	; 2
    16dc:	9f 93       	push	r25
    16de:	8f 93       	push	r24
    16e0:	84 e7       	ldi	r24, 0x74	; 116
    16e2:	91 e0       	ldi	r25, 0x01	; 1
    16e4:	9f 93       	push	r25
    16e6:	8f 93       	push	r24
    16e8:	ff 93       	push	r31
    16ea:	ef 93       	push	r30
    16ec:	0e 94 a5 0e 	call	0x1d4a	; 0x1d4a <sscanf>
    16f0:	0f b6       	in	r0, 0x3f	; 63
    16f2:	f8 94       	cli
    16f4:	de bf       	out	0x3e, r29	; 62
    16f6:	0f be       	out	0x3f, r0	; 63
    16f8:	cd bf       	out	0x3d, r28	; 61
    16fa:	8d 81       	ldd	r24, Y+5	; 0x05
    16fc:	9e 81       	ldd	r25, Y+6	; 0x06
    16fe:	8a 30       	cpi	r24, 0x0A	; 10
    1700:	91 05       	cpc	r25, r1
    1702:	08 f0       	brcs	.+2      	; 0x1706 <timecalc+0x188>
    1704:	79 c0       	rjmp	.+242    	; 0x17f8 <timecalc+0x27a>
    1706:	89 2b       	or	r24, r25
    1708:	21 f0       	breq	.+8      	; 0x1712 <timecalc+0x194>
    170a:	8b 81       	ldd	r24, Y+3	; 0x03
    170c:	9c 81       	ldd	r25, Y+4	; 0x04
    170e:	cc 97       	sbiw	r24, 0x3c	; 60
    1710:	30 f4       	brcc	.+12     	; 0x171e <timecalc+0x1a0>
    1712:	29 81       	ldd	r18, Y+1	; 0x01
    1714:	3a 81       	ldd	r19, Y+2	; 0x02
    1716:	24 36       	cpi	r18, 0x64	; 100
    1718:	31 05       	cpc	r19, r1
    171a:	08 f4       	brcc	.+2      	; 0x171e <timecalc+0x1a0>
    171c:	3f c0       	rjmp	.+126    	; 0x179c <timecalc+0x21e>
    171e:	89 e0       	ldi	r24, 0x09	; 9
    1720:	94 e0       	ldi	r25, 0x04	; 4
    1722:	95 cf       	rjmp	.-214    	; 0x164e <timecalc+0xd0>
    1724:	ce 01       	movw	r24, r28
    1726:	01 96       	adiw	r24, 0x01	; 1
    1728:	9f 93       	push	r25
    172a:	8f 93       	push	r24
    172c:	02 96       	adiw	r24, 0x02	; 2
    172e:	9f 93       	push	r25
    1730:	8f 93       	push	r24
    1732:	02 96       	adiw	r24, 0x02	; 2
    1734:	9f 93       	push	r25
    1736:	8f 93       	push	r24
    1738:	82 e7       	ldi	r24, 0x72	; 114
    173a:	91 e0       	ldi	r25, 0x01	; 1
    173c:	9f 93       	push	r25
    173e:	8f 93       	push	r24
    1740:	ff 93       	push	r31
    1742:	ef 93       	push	r30
    1744:	0e 94 a5 0e 	call	0x1d4a	; 0x1d4a <sscanf>
    1748:	d3 cf       	rjmp	.-90     	; 0x16f0 <timecalc+0x172>
    174a:	ce 01       	movw	r24, r28
    174c:	03 96       	adiw	r24, 0x03	; 3
    174e:	9f 93       	push	r25
    1750:	8f 93       	push	r24
    1752:	02 96       	adiw	r24, 0x02	; 2
    1754:	9f 93       	push	r25
    1756:	8f 93       	push	r24
    1758:	8b e7       	ldi	r24, 0x7B	; 123
    175a:	91 e0       	ldi	r25, 0x01	; 1
    175c:	9f 93       	push	r25
    175e:	8f 93       	push	r24
    1760:	ff 93       	push	r31
    1762:	ef 93       	push	r30
    1764:	0e 94 a5 0e 	call	0x1d4a	; 0x1d4a <sscanf>
    1768:	1a 82       	std	Y+2, r1	; 0x02
    176a:	19 82       	std	Y+1, r1	; 0x01
    176c:	c1 cf       	rjmp	.-126    	; 0x16f0 <timecalc+0x172>
    176e:	ce 01       	movw	r24, r28
    1770:	03 96       	adiw	r24, 0x03	; 3
    1772:	9f 93       	push	r25
    1774:	8f 93       	push	r24
    1776:	88 e7       	ldi	r24, 0x78	; 120
    1778:	91 e0       	ldi	r25, 0x01	; 1
    177a:	9f 93       	push	r25
    177c:	8f 93       	push	r24
    177e:	ff 93       	push	r31
    1780:	ef 93       	push	r30
    1782:	0e 94 a5 0e 	call	0x1d4a	; 0x1d4a <sscanf>
    1786:	1e 82       	std	Y+6, r1	; 0x06
    1788:	1d 82       	std	Y+5, r1	; 0x05
    178a:	1a 82       	std	Y+2, r1	; 0x02
    178c:	19 82       	std	Y+1, r1	; 0x01
    178e:	0f 90       	pop	r0
    1790:	0f 90       	pop	r0
    1792:	0f 90       	pop	r0
    1794:	0f 90       	pop	r0
    1796:	0f 90       	pop	r0
    1798:	0f 90       	pop	r0
    179a:	af cf       	rjmp	.-162    	; 0x16fa <timecalc+0x17c>
    179c:	8b 81       	ldd	r24, Y+3	; 0x03
    179e:	9c 81       	ldd	r25, Y+4	; 0x04
    17a0:	8c 33       	cpi	r24, 0x3C	; 60
    17a2:	91 05       	cpc	r25, r1
    17a4:	40 f0       	brcs	.+16     	; 0x17b6 <timecalc+0x238>
    17a6:	6c e3       	ldi	r22, 0x3C	; 60
    17a8:	70 e0       	ldi	r23, 0x00	; 0
    17aa:	0e 94 2d 0e 	call	0x1c5a	; 0x1c5a <__udivmodhi4>
    17ae:	7e 83       	std	Y+6, r23	; 0x06
    17b0:	6d 83       	std	Y+5, r22	; 0x05
    17b2:	9c 83       	std	Y+4, r25	; 0x04
    17b4:	8b 83       	std	Y+3, r24	; 0x03
    17b6:	6d 81       	ldd	r22, Y+5	; 0x05
    17b8:	7e 81       	ldd	r23, Y+6	; 0x06
    17ba:	40 e7       	ldi	r20, 0x70	; 112
    17bc:	57 e1       	ldi	r21, 0x17	; 23
    17be:	64 9f       	mul	r22, r20
    17c0:	c0 01       	movw	r24, r0
    17c2:	65 9f       	mul	r22, r21
    17c4:	90 0d       	add	r25, r0
    17c6:	74 9f       	mul	r23, r20
    17c8:	90 0d       	add	r25, r0
    17ca:	11 24       	eor	r1, r1
    17cc:	6b 81       	ldd	r22, Y+3	; 0x03
    17ce:	7c 81       	ldd	r23, Y+4	; 0x04
    17d0:	e4 e6       	ldi	r30, 0x64	; 100
    17d2:	e6 9f       	mul	r30, r22
    17d4:	a0 01       	movw	r20, r0
    17d6:	e7 9f       	mul	r30, r23
    17d8:	50 0d       	add	r21, r0
    17da:	11 24       	eor	r1, r1
    17dc:	84 0f       	add	r24, r20
    17de:	95 1f       	adc	r25, r21
    17e0:	82 0f       	add	r24, r18
    17e2:	93 1f       	adc	r25, r19
    17e4:	26 96       	adiw	r28, 0x06	; 6
    17e6:	0f b6       	in	r0, 0x3f	; 63
    17e8:	f8 94       	cli
    17ea:	de bf       	out	0x3e, r29	; 62
    17ec:	0f be       	out	0x3f, r0	; 63
    17ee:	cd bf       	out	0x3d, r28	; 61
    17f0:	df 91       	pop	r29
    17f2:	cf 91       	pop	r28
    17f4:	1f 91       	pop	r17
    17f6:	08 95       	ret
    17f8:	80 e6       	ldi	r24, 0x60	; 96
    17fa:	9a ee       	ldi	r25, 0xEA	; 234
    17fc:	f3 cf       	rjmp	.-26     	; 0x17e4 <timecalc+0x266>
    17fe:	82 30       	cpi	r24, 0x02	; 2
    1800:	09 f4       	brne	.+2      	; 0x1804 <timecalc+0x286>
    1802:	a3 cf       	rjmp	.-186    	; 0x174a <timecalc+0x1cc>
    1804:	83 30       	cpi	r24, 0x03	; 3
    1806:	09 f0       	breq	.+2      	; 0x180a <timecalc+0x28c>
    1808:	06 cf       	rjmp	.-500    	; 0x1616 <timecalc+0x98>
    180a:	61 cf       	rjmp	.-318    	; 0x16ce <timecalc+0x150>

0000180c <timedisplay>:
    180c:	cf 93       	push	r28
    180e:	9c 01       	movw	r18, r24
    1810:	46 2f       	mov	r20, r22
    1812:	c7 2f       	mov	r28, r23
    1814:	20 36       	cpi	r18, 0x60	; 96
    1816:	8a ee       	ldi	r24, 0xEA	; 234
    1818:	38 07       	cpc	r19, r24
    181a:	40 f5       	brcc	.+80     	; 0x186c <timedisplay+0x60>
    181c:	e4 e6       	ldi	r30, 0x64	; 100
    181e:	f0 e0       	ldi	r31, 0x00	; 0
    1820:	c9 01       	movw	r24, r18
    1822:	bf 01       	movw	r22, r30
    1824:	0e 94 2d 0e 	call	0x1c5a	; 0x1c5a <__udivmodhi4>
    1828:	9f 93       	push	r25
    182a:	8f 93       	push	r24
    182c:	c9 01       	movw	r24, r18
    182e:	60 e7       	ldi	r22, 0x70	; 112
    1830:	77 e1       	ldi	r23, 0x17	; 23
    1832:	0e 94 2d 0e 	call	0x1c5a	; 0x1c5a <__udivmodhi4>
    1836:	9b 01       	movw	r18, r22
    1838:	bf 01       	movw	r22, r30
    183a:	0e 94 2d 0e 	call	0x1c5a	; 0x1c5a <__udivmodhi4>
    183e:	7f 93       	push	r23
    1840:	6f 93       	push	r22
    1842:	3f 93       	push	r19
    1844:	2f 93       	push	r18
    1846:	81 e8       	ldi	r24, 0x81	; 129
    1848:	91 e0       	ldi	r25, 0x01	; 1
    184a:	9f 93       	push	r25
    184c:	8f 93       	push	r24
    184e:	cf 93       	push	r28
    1850:	4f 93       	push	r20
    1852:	0e 94 82 0e 	call	0x1d04	; 0x1d04 <sprintf>
    1856:	8d b7       	in	r24, 0x3d	; 61
    1858:	9e b7       	in	r25, 0x3e	; 62
    185a:	0a 96       	adiw	r24, 0x0a	; 10
    185c:	0f b6       	in	r0, 0x3f	; 63
    185e:	f8 94       	cli
    1860:	9e bf       	out	0x3e, r25	; 62
    1862:	0f be       	out	0x3f, r0	; 63
    1864:	8d bf       	out	0x3d, r24	; 61
    1866:	80 e0       	ldi	r24, 0x00	; 0
    1868:	cf 91       	pop	r28
    186a:	08 95       	ret
    186c:	81 e0       	ldi	r24, 0x01	; 1
    186e:	fc cf       	rjmp	.-8      	; 0x1868 <timedisplay+0x5c>

00001870 <timer1_init>:
    1870:	8b e4       	ldi	r24, 0x4B	; 75
    1872:	9d e1       	ldi	r25, 0x1D	; 29
    1874:	90 93 89 00 	sts	0x0089, r25	; 0x800089 <__TEXT_REGION_LENGTH__+0x7e0089>
    1878:	80 93 88 00 	sts	0x0088, r24	; 0x800088 <__TEXT_REGION_LENGTH__+0x7e0088>
    187c:	e1 e8       	ldi	r30, 0x81	; 129
    187e:	f0 e0       	ldi	r31, 0x00	; 0
    1880:	80 81       	ld	r24, Z
    1882:	88 60       	ori	r24, 0x08	; 8
    1884:	80 83       	st	Z, r24
    1886:	ef e6       	ldi	r30, 0x6F	; 111
    1888:	f0 e0       	ldi	r31, 0x00	; 0
    188a:	80 81       	ld	r24, Z
    188c:	82 60       	ori	r24, 0x02	; 2
    188e:	80 83       	st	Z, r24
    1890:	08 95       	ret

00001892 <timer1_on>:
    1892:	e1 e8       	ldi	r30, 0x81	; 129
    1894:	f0 e0       	ldi	r31, 0x00	; 0
    1896:	80 81       	ld	r24, Z
    1898:	82 60       	ori	r24, 0x02	; 2
    189a:	80 83       	st	Z, r24
    189c:	08 95       	ret

0000189e <timer1_off>:
    189e:	e1 e8       	ldi	r30, 0x81	; 129
    18a0:	f0 e0       	ldi	r31, 0x00	; 0
    18a2:	80 81       	ld	r24, Z
    18a4:	88 7f       	andi	r24, 0xF8	; 248
    18a6:	80 83       	st	Z, r24
    18a8:	08 95       	ret

000018aa <timer1_reset>:
    18aa:	81 e0       	ldi	r24, 0x01	; 1
    18ac:	86 bb       	out	0x16, r24	; 22
    18ae:	10 92 85 00 	sts	0x0085, r1	; 0x800085 <__TEXT_REGION_LENGTH__+0x7e0085>
    18b2:	10 92 84 00 	sts	0x0084, r1	; 0x800084 <__TEXT_REGION_LENGTH__+0x7e0084>
    18b6:	08 95       	ret

000018b8 <block_uart_sending>:
    18b8:	08 95       	ret

000018ba <allow_uart_sending>:
    18ba:	08 95       	ret

000018bc <uart_init>:
    18bc:	0f 93       	push	r16
    18be:	1f 93       	push	r17
    18c0:	cf 93       	push	r28
    18c2:	8b 01       	movw	r16, r22
    18c4:	9c 01       	movw	r18, r24
    18c6:	cf b7       	in	r28, 0x3f	; 63
    18c8:	f8 94       	cli
    18ca:	43 e0       	ldi	r20, 0x03	; 3
    18cc:	66 0f       	add	r22, r22
    18ce:	77 1f       	adc	r23, r23
    18d0:	88 1f       	adc	r24, r24
    18d2:	99 1f       	adc	r25, r25
    18d4:	4a 95       	dec	r20
    18d6:	d1 f7       	brne	.-12     	; 0x18cc <uart_init+0x10>
    18d8:	60 58       	subi	r22, 0x80	; 128
    18da:	72 47       	sbci	r23, 0x72	; 114
    18dc:	84 4a       	sbci	r24, 0xA4	; 164
    18de:	9f 4f       	sbci	r25, 0xFF	; 255
    18e0:	a9 01       	movw	r20, r18
    18e2:	98 01       	movw	r18, r16
    18e4:	e4 e0       	ldi	r30, 0x04	; 4
    18e6:	22 0f       	add	r18, r18
    18e8:	33 1f       	adc	r19, r19
    18ea:	44 1f       	adc	r20, r20
    18ec:	55 1f       	adc	r21, r21
    18ee:	ea 95       	dec	r30
    18f0:	d1 f7       	brne	.-12     	; 0x18e6 <uart_init+0x2a>
    18f2:	0e 94 41 0e 	call	0x1c82	; 0x1c82 <__udivmodsi4>
    18f6:	ba 01       	movw	r22, r20
    18f8:	a9 01       	movw	r20, r18
    18fa:	41 50       	subi	r20, 0x01	; 1
    18fc:	51 09       	sbc	r21, r1
    18fe:	61 09       	sbc	r22, r1
    1900:	71 09       	sbc	r23, r1
    1902:	bb 27       	eor	r27, r27
    1904:	a7 2f       	mov	r26, r23
    1906:	96 2f       	mov	r25, r22
    1908:	85 2f       	mov	r24, r21
    190a:	80 93 c5 00 	sts	0x00C5, r24	; 0x8000c5 <__TEXT_REGION_LENGTH__+0x7e00c5>
    190e:	40 93 c4 00 	sts	0x00C4, r20	; 0x8000c4 <__TEXT_REGION_LENGTH__+0x7e00c4>
    1912:	88 e1       	ldi	r24, 0x18	; 24
    1914:	80 93 c1 00 	sts	0x00C1, r24	; 0x8000c1 <__TEXT_REGION_LENGTH__+0x7e00c1>
    1918:	86 e0       	ldi	r24, 0x06	; 6
    191a:	80 93 c2 00 	sts	0x00C2, r24	; 0x8000c2 <__TEXT_REGION_LENGTH__+0x7e00c2>
    191e:	cf bf       	out	0x3f, r28	; 63
    1920:	cf 91       	pop	r28
    1922:	1f 91       	pop	r17
    1924:	0f 91       	pop	r16
    1926:	08 95       	ret

00001928 <uart_getc>:
    1928:	80 e8       	ldi	r24, 0x80	; 128
    192a:	9d e8       	ldi	r25, 0x8D	; 141
    192c:	ab e5       	ldi	r26, 0x5B	; 91
    192e:	b0 e0       	ldi	r27, 0x00	; 0
    1930:	01 97       	sbiw	r24, 0x01	; 1
    1932:	a1 09       	sbc	r26, r1
    1934:	b1 09       	sbc	r27, r1
    1936:	39 f0       	breq	.+14     	; 0x1946 <uart_getc+0x1e>
    1938:	20 91 c0 00 	lds	r18, 0x00C0	; 0x8000c0 <__TEXT_REGION_LENGTH__+0x7e00c0>
    193c:	27 ff       	sbrs	r18, 7
    193e:	f8 cf       	rjmp	.-16     	; 0x1930 <uart_getc+0x8>
    1940:	80 91 c6 00 	lds	r24, 0x00C6	; 0x8000c6 <__TEXT_REGION_LENGTH__+0x7e00c6>
    1944:	08 95       	ret
    1946:	80 e0       	ldi	r24, 0x00	; 0
    1948:	08 95       	ret

0000194a <uart_putc>:
    194a:	40 e8       	ldi	r20, 0x80	; 128
    194c:	5d e8       	ldi	r21, 0x8D	; 141
    194e:	6b e5       	ldi	r22, 0x5B	; 91
    1950:	70 e0       	ldi	r23, 0x00	; 0
    1952:	41 50       	subi	r20, 0x01	; 1
    1954:	51 09       	sbc	r21, r1
    1956:	61 09       	sbc	r22, r1
    1958:	71 09       	sbc	r23, r1
    195a:	21 f0       	breq	.+8      	; 0x1964 <uart_putc+0x1a>
    195c:	90 91 c0 00 	lds	r25, 0x00C0	; 0x8000c0 <__TEXT_REGION_LENGTH__+0x7e00c0>
    1960:	95 ff       	sbrs	r25, 5
    1962:	f7 cf       	rjmp	.-18     	; 0x1952 <uart_putc+0x8>
    1964:	80 93 c6 00 	sts	0x00C6, r24	; 0x8000c6 <__TEXT_REGION_LENGTH__+0x7e00c6>
    1968:	80 e0       	ldi	r24, 0x00	; 0
    196a:	08 95       	ret

0000196c <uart_puts>:
    196c:	cf 93       	push	r28
    196e:	df 93       	push	r29
    1970:	ec 01       	movw	r28, r24
    1972:	80 e0       	ldi	r24, 0x00	; 0
    1974:	99 91       	ld	r25, Y+
    1976:	99 23       	and	r25, r25
    1978:	11 f0       	breq	.+4      	; 0x197e <uart_puts+0x12>
    197a:	88 23       	and	r24, r24
    197c:	19 f0       	breq	.+6      	; 0x1984 <uart_puts+0x18>
    197e:	df 91       	pop	r29
    1980:	cf 91       	pop	r28
    1982:	08 95       	ret
    1984:	89 2f       	mov	r24, r25
    1986:	0e 94 a5 0c 	call	0x194a	; 0x194a <uart_putc>
    198a:	f4 cf       	rjmp	.-24     	; 0x1974 <uart_puts+0x8>

0000198c <uart_puts_P>:
    198c:	cf 93       	push	r28
    198e:	df 93       	push	r29
    1990:	ec 01       	movw	r28, r24
    1992:	fe 01       	movw	r30, r28
    1994:	84 91       	lpm	r24, Z
    1996:	88 23       	and	r24, r24
    1998:	29 f0       	breq	.+10     	; 0x19a4 <uart_puts_P+0x18>
    199a:	0e 94 a5 0c 	call	0x194a	; 0x194a <uart_putc>
    199e:	21 96       	adiw	r28, 0x01	; 1
    19a0:	88 23       	and	r24, r24
    19a2:	b9 f3       	breq	.-18     	; 0x1992 <uart_puts_P+0x6>
    19a4:	df 91       	pop	r29
    19a6:	cf 91       	pop	r28
    19a8:	08 95       	ret

000019aa <uart_strings_equal>:
    19aa:	fc 01       	movw	r30, r24
    19ac:	db 01       	movw	r26, r22
    19ae:	2d 91       	ld	r18, X+
    19b0:	bd 01       	movw	r22, r26
    19b2:	91 91       	ld	r25, Z+
    19b4:	21 11       	cpse	r18, r1
    19b6:	04 c0       	rjmp	.+8      	; 0x19c0 <uart_strings_equal+0x16>
    19b8:	81 e0       	ldi	r24, 0x01	; 1
    19ba:	91 11       	cpse	r25, r1
    19bc:	03 c0       	rjmp	.+6      	; 0x19c4 <uart_strings_equal+0x1a>
    19be:	08 95       	ret
    19c0:	29 17       	cp	r18, r25
    19c2:	a1 f3       	breq	.-24     	; 0x19ac <uart_strings_equal+0x2>
    19c4:	80 e0       	ldi	r24, 0x00	; 0
    19c6:	fb cf       	rjmp	.-10     	; 0x19be <uart_strings_equal+0x14>

000019c8 <uart_shownum>:
    19c8:	4f 92       	push	r4
    19ca:	5f 92       	push	r5
    19cc:	6f 92       	push	r6
    19ce:	7f 92       	push	r7
    19d0:	8f 92       	push	r8
    19d2:	9f 92       	push	r9
    19d4:	af 92       	push	r10
    19d6:	bf 92       	push	r11
    19d8:	cf 92       	push	r12
    19da:	df 92       	push	r13
    19dc:	ef 92       	push	r14
    19de:	ff 92       	push	r15
    19e0:	0f 93       	push	r16
    19e2:	1f 93       	push	r17
    19e4:	cf 93       	push	r28
    19e6:	df 93       	push	r29
    19e8:	cd b7       	in	r28, 0x3d	; 61
    19ea:	de b7       	in	r29, 0x3e	; 62
    19ec:	a1 97       	sbiw	r28, 0x21	; 33
    19ee:	0f b6       	in	r0, 0x3f	; 63
    19f0:	f8 94       	cli
    19f2:	de bf       	out	0x3e, r29	; 62
    19f4:	0f be       	out	0x3f, r0	; 63
    19f6:	cd bf       	out	0x3d, r28	; 61
    19f8:	6b 01       	movw	r12, r22
    19fa:	7c 01       	movw	r14, r24
    19fc:	8e 01       	movw	r16, r28
    19fe:	0f 5f       	subi	r16, 0xFF	; 255
    1a00:	1f 4f       	sbci	r17, 0xFF	; 255
    1a02:	81 e2       	ldi	r24, 0x21	; 33
    1a04:	f8 01       	movw	r30, r16
    1a06:	11 92       	st	Z+, r1
    1a08:	8a 95       	dec	r24
    1a0a:	e9 f7       	brne	.-6      	; 0x1a06 <uart_shownum+0x3e>
    1a0c:	48 34       	cpi	r20, 0x48	; 72
    1a0e:	39 f1       	breq	.+78     	; 0x1a5e <uart_shownum+0x96>
    1a10:	10 f5       	brcc	.+68     	; 0x1a56 <uart_shownum+0x8e>
    1a12:	42 34       	cpi	r20, 0x42	; 66
    1a14:	31 f1       	breq	.+76     	; 0x1a62 <uart_shownum+0x9a>
    1a16:	c1 14       	cp	r12, r1
    1a18:	d1 04       	cpc	r13, r1
    1a1a:	e1 04       	cpc	r14, r1
    1a1c:	f1 04       	cpc	r15, r1
    1a1e:	09 f0       	breq	.+2      	; 0x1a22 <uart_shownum+0x5a>
    1a20:	9c c0       	rjmp	.+312    	; 0x1b5a <uart_shownum+0x192>
    1a22:	86 e3       	ldi	r24, 0x36	; 54
    1a24:	94 e0       	ldi	r25, 0x04	; 4
    1a26:	a1 96       	adiw	r28, 0x21	; 33
    1a28:	0f b6       	in	r0, 0x3f	; 63
    1a2a:	f8 94       	cli
    1a2c:	de bf       	out	0x3e, r29	; 62
    1a2e:	0f be       	out	0x3f, r0	; 63
    1a30:	cd bf       	out	0x3d, r28	; 61
    1a32:	df 91       	pop	r29
    1a34:	cf 91       	pop	r28
    1a36:	1f 91       	pop	r17
    1a38:	0f 91       	pop	r16
    1a3a:	ff 90       	pop	r15
    1a3c:	ef 90       	pop	r14
    1a3e:	df 90       	pop	r13
    1a40:	cf 90       	pop	r12
    1a42:	bf 90       	pop	r11
    1a44:	af 90       	pop	r10
    1a46:	9f 90       	pop	r9
    1a48:	8f 90       	pop	r8
    1a4a:	7f 90       	pop	r7
    1a4c:	6f 90       	pop	r6
    1a4e:	5f 90       	pop	r5
    1a50:	4f 90       	pop	r4
    1a52:	0c 94 c6 0c 	jmp	0x198c	; 0x198c <uart_puts_P>
    1a56:	42 36       	cpi	r20, 0x62	; 98
    1a58:	21 f0       	breq	.+8      	; 0x1a62 <uart_shownum+0x9a>
    1a5a:	48 36       	cpi	r20, 0x68	; 104
    1a5c:	e1 f6       	brne	.-72     	; 0x1a16 <uart_shownum+0x4e>
    1a5e:	80 e0       	ldi	r24, 0x00	; 0
    1a60:	62 c0       	rjmp	.+196    	; 0x1b26 <uart_shownum+0x15e>
    1a62:	d7 01       	movw	r26, r14
    1a64:	c6 01       	movw	r24, r12
    1a66:	f7 fe       	sbrs	r15, 7
    1a68:	07 c0       	rjmp	.+14     	; 0x1a78 <uart_shownum+0xb0>
    1a6a:	88 27       	eor	r24, r24
    1a6c:	99 27       	eor	r25, r25
    1a6e:	dc 01       	movw	r26, r24
    1a70:	8c 19       	sub	r24, r12
    1a72:	9d 09       	sbc	r25, r13
    1a74:	ae 09       	sbc	r26, r14
    1a76:	bf 09       	sbc	r27, r15
    1a78:	40 e8       	ldi	r20, 0x80	; 128
    1a7a:	84 2e       	mov	r8, r20
    1a7c:	91 2c       	mov	r9, r1
    1a7e:	a1 2c       	mov	r10, r1
    1a80:	b1 2c       	mov	r11, r1
    1a82:	8f 3f       	cpi	r24, 0xFF	; 255
    1a84:	91 05       	cpc	r25, r1
    1a86:	a1 05       	cpc	r26, r1
    1a88:	b1 05       	cpc	r27, r1
    1a8a:	81 f0       	breq	.+32     	; 0x1aac <uart_shownum+0xe4>
    1a8c:	7c f0       	brlt	.+30     	; 0x1aac <uart_shownum+0xe4>
    1a8e:	81 2c       	mov	r8, r1
    1a90:	91 2c       	mov	r9, r1
    1a92:	a1 2c       	mov	r10, r1
    1a94:	50 e8       	ldi	r21, 0x80	; 128
    1a96:	b5 2e       	mov	r11, r21
    1a98:	8f 3f       	cpi	r24, 0xFF	; 255
    1a9a:	9f 4f       	sbci	r25, 0xFF	; 255
    1a9c:	a1 05       	cpc	r26, r1
    1a9e:	b1 05       	cpc	r27, r1
    1aa0:	2c f4       	brge	.+10     	; 0x1aac <uart_shownum+0xe4>
    1aa2:	81 2c       	mov	r8, r1
    1aa4:	30 e8       	ldi	r19, 0x80	; 128
    1aa6:	93 2e       	mov	r9, r19
    1aa8:	a1 2c       	mov	r10, r1
    1aaa:	b1 2c       	mov	r11, r1
    1aac:	d7 01       	movw	r26, r14
    1aae:	c6 01       	movw	r24, r12
    1ab0:	88 21       	and	r24, r8
    1ab2:	99 21       	and	r25, r9
    1ab4:	aa 21       	and	r26, r10
    1ab6:	bb 21       	and	r27, r11
    1ab8:	89 2b       	or	r24, r25
    1aba:	8a 2b       	or	r24, r26
    1abc:	8b 2b       	or	r24, r27
    1abe:	19 f5       	brne	.+70     	; 0x1b06 <uart_shownum+0x13e>
    1ac0:	80 e3       	ldi	r24, 0x30	; 48
    1ac2:	0e 94 a5 0c 	call	0x194a	; 0x194a <uart_putc>
    1ac6:	b6 94       	lsr	r11
    1ac8:	a7 94       	ror	r10
    1aca:	97 94       	ror	r9
    1acc:	87 94       	ror	r8
    1ace:	81 14       	cp	r8, r1
    1ad0:	91 04       	cpc	r9, r1
    1ad2:	a1 04       	cpc	r10, r1
    1ad4:	b1 04       	cpc	r11, r1
    1ad6:	51 f7       	brne	.-44     	; 0x1aac <uart_shownum+0xe4>
    1ad8:	a1 96       	adiw	r28, 0x21	; 33
    1ada:	0f b6       	in	r0, 0x3f	; 63
    1adc:	f8 94       	cli
    1ade:	de bf       	out	0x3e, r29	; 62
    1ae0:	0f be       	out	0x3f, r0	; 63
    1ae2:	cd bf       	out	0x3d, r28	; 61
    1ae4:	df 91       	pop	r29
    1ae6:	cf 91       	pop	r28
    1ae8:	1f 91       	pop	r17
    1aea:	0f 91       	pop	r16
    1aec:	ff 90       	pop	r15
    1aee:	ef 90       	pop	r14
    1af0:	df 90       	pop	r13
    1af2:	cf 90       	pop	r12
    1af4:	bf 90       	pop	r11
    1af6:	af 90       	pop	r10
    1af8:	9f 90       	pop	r9
    1afa:	8f 90       	pop	r8
    1afc:	7f 90       	pop	r7
    1afe:	6f 90       	pop	r6
    1b00:	5f 90       	pop	r5
    1b02:	4f 90       	pop	r4
    1b04:	08 95       	ret
    1b06:	81 e3       	ldi	r24, 0x31	; 49
    1b08:	dc cf       	rjmp	.-72     	; 0x1ac2 <uart_shownum+0xfa>
    1b0a:	f8 01       	movw	r30, r16
    1b0c:	e8 0f       	add	r30, r24
    1b0e:	f1 1d       	adc	r31, r1
    1b10:	9c 2d       	mov	r25, r12
    1b12:	9f 70       	andi	r25, 0x0F	; 15
    1b14:	90 83       	st	Z, r25
    1b16:	94 e0       	ldi	r25, 0x04	; 4
    1b18:	f5 94       	asr	r15
    1b1a:	e7 94       	ror	r14
    1b1c:	d7 94       	ror	r13
    1b1e:	c7 94       	ror	r12
    1b20:	9a 95       	dec	r25
    1b22:	d1 f7       	brne	.-12     	; 0x1b18 <uart_shownum+0x150>
    1b24:	8f 5f       	subi	r24, 0xFF	; 255
    1b26:	c1 14       	cp	r12, r1
    1b28:	d1 04       	cpc	r13, r1
    1b2a:	e1 04       	cpc	r14, r1
    1b2c:	f1 04       	cpc	r15, r1
    1b2e:	69 f7       	brne	.-38     	; 0x1b0a <uart_shownum+0x142>
    1b30:	88 23       	and	r24, r24
    1b32:	59 f3       	breq	.-42     	; 0x1b0a <uart_shownum+0x142>
    1b34:	80 fd       	sbrc	r24, 0
    1b36:	8f 5f       	subi	r24, 0xFF	; 255
    1b38:	78 01       	movw	r14, r16
    1b3a:	e8 0e       	add	r14, r24
    1b3c:	f1 1c       	adc	r15, r1
    1b3e:	e0 16       	cp	r14, r16
    1b40:	f1 06       	cpc	r15, r17
    1b42:	51 f2       	breq	.-108    	; 0x1ad8 <uart_shownum+0x110>
    1b44:	f7 01       	movw	r30, r14
    1b46:	82 91       	ld	r24, -Z
    1b48:	7f 01       	movw	r14, r30
    1b4a:	8a 30       	cpi	r24, 0x0A	; 10
    1b4c:	20 f0       	brcs	.+8      	; 0x1b56 <uart_shownum+0x18e>
    1b4e:	89 5c       	subi	r24, 0xC9	; 201
    1b50:	0e 94 a5 0c 	call	0x194a	; 0x194a <uart_putc>
    1b54:	f4 cf       	rjmp	.-24     	; 0x1b3e <uart_shownum+0x176>
    1b56:	80 5d       	subi	r24, 0xD0	; 208
    1b58:	fb cf       	rjmp	.-10     	; 0x1b50 <uart_shownum+0x188>
    1b5a:	a1 2c       	mov	r10, r1
    1b5c:	f7 fe       	sbrs	r15, 7
    1b5e:	0a c0       	rjmp	.+20     	; 0x1b74 <uart_shownum+0x1ac>
    1b60:	f0 94       	com	r15
    1b62:	e0 94       	com	r14
    1b64:	d0 94       	com	r13
    1b66:	c0 94       	com	r12
    1b68:	c1 1c       	adc	r12, r1
    1b6a:	d1 1c       	adc	r13, r1
    1b6c:	e1 1c       	adc	r14, r1
    1b6e:	f1 1c       	adc	r15, r1
    1b70:	aa 24       	eor	r10, r10
    1b72:	a3 94       	inc	r10
    1b74:	48 01       	movw	r8, r16
    1b76:	b1 2c       	mov	r11, r1
    1b78:	8a e0       	ldi	r24, 0x0A	; 10
    1b7a:	48 2e       	mov	r4, r24
    1b7c:	51 2c       	mov	r5, r1
    1b7e:	61 2c       	mov	r6, r1
    1b80:	71 2c       	mov	r7, r1
    1b82:	b3 94       	inc	r11
    1b84:	c7 01       	movw	r24, r14
    1b86:	b6 01       	movw	r22, r12
    1b88:	a3 01       	movw	r20, r6
    1b8a:	92 01       	movw	r18, r4
    1b8c:	0e 94 63 0e 	call	0x1cc6	; 0x1cc6 <__divmodsi4>
    1b90:	f4 01       	movw	r30, r8
    1b92:	61 93       	st	Z+, r22
    1b94:	4f 01       	movw	r8, r30
    1b96:	69 01       	movw	r12, r18
    1b98:	7a 01       	movw	r14, r20
    1b9a:	c1 14       	cp	r12, r1
    1b9c:	d1 04       	cpc	r13, r1
    1b9e:	e1 04       	cpc	r14, r1
    1ba0:	f1 04       	cpc	r15, r1
    1ba2:	19 f0       	breq	.+6      	; 0x1baa <uart_shownum+0x1e2>
    1ba4:	f1 e2       	ldi	r31, 0x21	; 33
    1ba6:	bf 12       	cpse	r11, r31
    1ba8:	ec cf       	rjmp	.-40     	; 0x1b82 <uart_shownum+0x1ba>
    1baa:	aa 20       	and	r10, r10
    1bac:	21 f0       	breq	.+8      	; 0x1bb6 <uart_shownum+0x1ee>
    1bae:	84 e3       	ldi	r24, 0x34	; 52
    1bb0:	94 e0       	ldi	r25, 0x04	; 4
    1bb2:	0e 94 c6 0c 	call	0x198c	; 0x198c <uart_puts_P>
    1bb6:	78 01       	movw	r14, r16
    1bb8:	eb 0c       	add	r14, r11
    1bba:	f1 1c       	adc	r15, r1
    1bbc:	0e 15       	cp	r16, r14
    1bbe:	1f 05       	cpc	r17, r15
    1bc0:	09 f4       	brne	.+2      	; 0x1bc4 <uart_shownum+0x1fc>
    1bc2:	8a cf       	rjmp	.-236    	; 0x1ad8 <uart_shownum+0x110>
    1bc4:	f7 01       	movw	r30, r14
    1bc6:	82 91       	ld	r24, -Z
    1bc8:	7f 01       	movw	r14, r30
    1bca:	80 5d       	subi	r24, 0xD0	; 208
    1bcc:	0e 94 a5 0c 	call	0x194a	; 0x194a <uart_putc>
    1bd0:	f5 cf       	rjmp	.-22     	; 0x1bbc <uart_shownum+0x1f4>

00001bd2 <uart_lower_case>:
    1bd2:	9f eb       	ldi	r25, 0xBF	; 191
    1bd4:	98 0f       	add	r25, r24
    1bd6:	9a 31       	cpi	r25, 0x1A	; 26
    1bd8:	30 f0       	brcs	.+12     	; 0x1be6 <uart_lower_case+0x14>
    1bda:	84 3c       	cpi	r24, 0xC4	; 196
    1bdc:	21 f0       	breq	.+8      	; 0x1be6 <uart_lower_case+0x14>
    1bde:	86 3d       	cpi	r24, 0xD6	; 214
    1be0:	11 f0       	breq	.+4      	; 0x1be6 <uart_lower_case+0x14>
    1be2:	8c 3d       	cpi	r24, 0xDC	; 220
    1be4:	09 f4       	brne	.+2      	; 0x1be8 <uart_lower_case+0x16>
    1be6:	80 62       	ori	r24, 0x20	; 32
    1be8:	08 95       	ret

00001bea <uart_gets>:
    1bea:	0f 93       	push	r16
    1bec:	1f 93       	push	r17
    1bee:	cf 93       	push	r28
    1bf0:	df 93       	push	r29
    1bf2:	8c 01       	movw	r16, r24
    1bf4:	c0 e0       	ldi	r28, 0x00	; 0
    1bf6:	0e 94 94 0c 	call	0x1928	; 0x1928 <uart_getc>
    1bfa:	0e 94 e9 0d 	call	0x1bd2	; 0x1bd2 <uart_lower_case>
    1bfe:	d8 2f       	mov	r29, r24
    1c00:	8d 30       	cpi	r24, 0x0D	; 13
    1c02:	b1 f0       	breq	.+44     	; 0x1c30 <uart_gets+0x46>
    1c04:	8a 30       	cpi	r24, 0x0A	; 10
    1c06:	a1 f0       	breq	.+40     	; 0x1c30 <uart_gets+0x46>
    1c08:	88 30       	cpi	r24, 0x08	; 8
    1c0a:	11 f0       	breq	.+4      	; 0x1c10 <uart_gets+0x26>
    1c0c:	8f 37       	cpi	r24, 0x7F	; 127
    1c0e:	89 f4       	brne	.+34     	; 0x1c32 <uart_gets+0x48>
    1c10:	c1 11       	cpse	r28, r1
    1c12:	08 c0       	rjmp	.+16     	; 0x1c24 <uart_gets+0x3a>
    1c14:	f8 01       	movw	r30, r16
    1c16:	10 82       	st	Z, r1
    1c18:	8c 2f       	mov	r24, r28
    1c1a:	df 91       	pop	r29
    1c1c:	cf 91       	pop	r28
    1c1e:	1f 91       	pop	r17
    1c20:	0f 91       	pop	r16
    1c22:	08 95       	ret
    1c24:	c1 50       	subi	r28, 0x01	; 1
    1c26:	8b e3       	ldi	r24, 0x3B	; 59
    1c28:	94 e0       	ldi	r25, 0x04	; 4
    1c2a:	0e 94 c6 0c 	call	0x198c	; 0x198c <uart_puts_P>
    1c2e:	e3 cf       	rjmp	.-58     	; 0x1bf6 <uart_gets+0xc>
    1c30:	d0 e0       	ldi	r29, 0x00	; 0
    1c32:	f8 01       	movw	r30, r16
    1c34:	ec 0f       	add	r30, r28
    1c36:	f1 1d       	adc	r31, r1
    1c38:	d0 83       	st	Z, r29
    1c3a:	8d 2f       	mov	r24, r29
    1c3c:	0e 94 a5 0c 	call	0x194a	; 0x194a <uart_putc>
    1c40:	dd 23       	and	r29, r29
    1c42:	41 f0       	breq	.+16     	; 0x1c54 <uart_gets+0x6a>
    1c44:	cf 5f       	subi	r28, 0xFF	; 255
    1c46:	cd 31       	cpi	r28, 0x1D	; 29
    1c48:	b1 f6       	brne	.-84     	; 0x1bf6 <uart_gets+0xc>
    1c4a:	88 e3       	ldi	r24, 0x38	; 56
    1c4c:	94 e0       	ldi	r25, 0x04	; 4
    1c4e:	0e 94 c6 0c 	call	0x198c	; 0x198c <uart_puts_P>
    1c52:	e2 cf       	rjmp	.-60     	; 0x1c18 <uart_gets+0x2e>
    1c54:	cc 23       	and	r28, r28
    1c56:	01 f3       	breq	.-64     	; 0x1c18 <uart_gets+0x2e>
    1c58:	f8 cf       	rjmp	.-16     	; 0x1c4a <uart_gets+0x60>

00001c5a <__udivmodhi4>:
    1c5a:	aa 1b       	sub	r26, r26
    1c5c:	bb 1b       	sub	r27, r27
    1c5e:	51 e1       	ldi	r21, 0x11	; 17
    1c60:	07 c0       	rjmp	.+14     	; 0x1c70 <__udivmodhi4_ep>

00001c62 <__udivmodhi4_loop>:
    1c62:	aa 1f       	adc	r26, r26
    1c64:	bb 1f       	adc	r27, r27
    1c66:	a6 17       	cp	r26, r22
    1c68:	b7 07       	cpc	r27, r23
    1c6a:	10 f0       	brcs	.+4      	; 0x1c70 <__udivmodhi4_ep>
    1c6c:	a6 1b       	sub	r26, r22
    1c6e:	b7 0b       	sbc	r27, r23

00001c70 <__udivmodhi4_ep>:
    1c70:	88 1f       	adc	r24, r24
    1c72:	99 1f       	adc	r25, r25
    1c74:	5a 95       	dec	r21
    1c76:	a9 f7       	brne	.-22     	; 0x1c62 <__udivmodhi4_loop>
    1c78:	80 95       	com	r24
    1c7a:	90 95       	com	r25
    1c7c:	bc 01       	movw	r22, r24
    1c7e:	cd 01       	movw	r24, r26
    1c80:	08 95       	ret

00001c82 <__udivmodsi4>:
    1c82:	a1 e2       	ldi	r26, 0x21	; 33
    1c84:	1a 2e       	mov	r1, r26
    1c86:	aa 1b       	sub	r26, r26
    1c88:	bb 1b       	sub	r27, r27
    1c8a:	fd 01       	movw	r30, r26
    1c8c:	0d c0       	rjmp	.+26     	; 0x1ca8 <__udivmodsi4_ep>

00001c8e <__udivmodsi4_loop>:
    1c8e:	aa 1f       	adc	r26, r26
    1c90:	bb 1f       	adc	r27, r27
    1c92:	ee 1f       	adc	r30, r30
    1c94:	ff 1f       	adc	r31, r31
    1c96:	a2 17       	cp	r26, r18
    1c98:	b3 07       	cpc	r27, r19
    1c9a:	e4 07       	cpc	r30, r20
    1c9c:	f5 07       	cpc	r31, r21
    1c9e:	20 f0       	brcs	.+8      	; 0x1ca8 <__udivmodsi4_ep>
    1ca0:	a2 1b       	sub	r26, r18
    1ca2:	b3 0b       	sbc	r27, r19
    1ca4:	e4 0b       	sbc	r30, r20
    1ca6:	f5 0b       	sbc	r31, r21

00001ca8 <__udivmodsi4_ep>:
    1ca8:	66 1f       	adc	r22, r22
    1caa:	77 1f       	adc	r23, r23
    1cac:	88 1f       	adc	r24, r24
    1cae:	99 1f       	adc	r25, r25
    1cb0:	1a 94       	dec	r1
    1cb2:	69 f7       	brne	.-38     	; 0x1c8e <__udivmodsi4_loop>
    1cb4:	60 95       	com	r22
    1cb6:	70 95       	com	r23
    1cb8:	80 95       	com	r24
    1cba:	90 95       	com	r25
    1cbc:	9b 01       	movw	r18, r22
    1cbe:	ac 01       	movw	r20, r24
    1cc0:	bd 01       	movw	r22, r26
    1cc2:	cf 01       	movw	r24, r30
    1cc4:	08 95       	ret

00001cc6 <__divmodsi4>:
    1cc6:	05 2e       	mov	r0, r21
    1cc8:	97 fb       	bst	r25, 7
    1cca:	1e f4       	brtc	.+6      	; 0x1cd2 <__divmodsi4+0xc>
    1ccc:	00 94       	com	r0
    1cce:	0e 94 7a 0e 	call	0x1cf4	; 0x1cf4 <__negsi2>
    1cd2:	57 fd       	sbrc	r21, 7
    1cd4:	07 d0       	rcall	.+14     	; 0x1ce4 <__divmodsi4_neg2>
    1cd6:	0e 94 41 0e 	call	0x1c82	; 0x1c82 <__udivmodsi4>
    1cda:	07 fc       	sbrc	r0, 7
    1cdc:	03 d0       	rcall	.+6      	; 0x1ce4 <__divmodsi4_neg2>
    1cde:	4e f4       	brtc	.+18     	; 0x1cf2 <__divmodsi4_exit>
    1ce0:	0c 94 7a 0e 	jmp	0x1cf4	; 0x1cf4 <__negsi2>

00001ce4 <__divmodsi4_neg2>:
    1ce4:	50 95       	com	r21
    1ce6:	40 95       	com	r20
    1ce8:	30 95       	com	r19
    1cea:	21 95       	neg	r18
    1cec:	3f 4f       	sbci	r19, 0xFF	; 255
    1cee:	4f 4f       	sbci	r20, 0xFF	; 255
    1cf0:	5f 4f       	sbci	r21, 0xFF	; 255

00001cf2 <__divmodsi4_exit>:
    1cf2:	08 95       	ret

00001cf4 <__negsi2>:
    1cf4:	90 95       	com	r25
    1cf6:	80 95       	com	r24
    1cf8:	70 95       	com	r23
    1cfa:	61 95       	neg	r22
    1cfc:	7f 4f       	sbci	r23, 0xFF	; 255
    1cfe:	8f 4f       	sbci	r24, 0xFF	; 255
    1d00:	9f 4f       	sbci	r25, 0xFF	; 255
    1d02:	08 95       	ret

00001d04 <sprintf>:
    1d04:	ae e0       	ldi	r26, 0x0E	; 14
    1d06:	b0 e0       	ldi	r27, 0x00	; 0
    1d08:	e8 e8       	ldi	r30, 0x88	; 136
    1d0a:	fe e0       	ldi	r31, 0x0E	; 14
    1d0c:	0c 94 46 14 	jmp	0x288c	; 0x288c <__prologue_saves__+0x1c>
    1d10:	0d 89       	ldd	r16, Y+21	; 0x15
    1d12:	1e 89       	ldd	r17, Y+22	; 0x16
    1d14:	86 e0       	ldi	r24, 0x06	; 6
    1d16:	8c 83       	std	Y+4, r24	; 0x04
    1d18:	1a 83       	std	Y+2, r17	; 0x02
    1d1a:	09 83       	std	Y+1, r16	; 0x01
    1d1c:	8f ef       	ldi	r24, 0xFF	; 255
    1d1e:	9f e7       	ldi	r25, 0x7F	; 127
    1d20:	9e 83       	std	Y+6, r25	; 0x06
    1d22:	8d 83       	std	Y+5, r24	; 0x05
    1d24:	ae 01       	movw	r20, r28
    1d26:	47 5e       	subi	r20, 0xE7	; 231
    1d28:	5f 4f       	sbci	r21, 0xFF	; 255
    1d2a:	6f 89       	ldd	r22, Y+23	; 0x17
    1d2c:	78 8d       	ldd	r23, Y+24	; 0x18
    1d2e:	ce 01       	movw	r24, r28
    1d30:	01 96       	adiw	r24, 0x01	; 1
    1d32:	0e 94 be 0e 	call	0x1d7c	; 0x1d7c <vfprintf>
    1d36:	2f 81       	ldd	r18, Y+7	; 0x07
    1d38:	38 85       	ldd	r19, Y+8	; 0x08
    1d3a:	02 0f       	add	r16, r18
    1d3c:	13 1f       	adc	r17, r19
    1d3e:	f8 01       	movw	r30, r16
    1d40:	10 82       	st	Z, r1
    1d42:	2e 96       	adiw	r28, 0x0e	; 14
    1d44:	e4 e0       	ldi	r30, 0x04	; 4
    1d46:	0c 94 62 14 	jmp	0x28c4	; 0x28c4 <__epilogue_restores__+0x1c>

00001d4a <sscanf>:
    1d4a:	ae e0       	ldi	r26, 0x0E	; 14
    1d4c:	b0 e0       	ldi	r27, 0x00	; 0
    1d4e:	eb ea       	ldi	r30, 0xAB	; 171
    1d50:	fe e0       	ldi	r31, 0x0E	; 14
    1d52:	0c 94 48 14 	jmp	0x2890	; 0x2890 <__prologue_saves__+0x20>
    1d56:	85 e0       	ldi	r24, 0x05	; 5
    1d58:	8c 83       	std	Y+4, r24	; 0x04
    1d5a:	8b 89       	ldd	r24, Y+19	; 0x13
    1d5c:	9c 89       	ldd	r25, Y+20	; 0x14
    1d5e:	9a 83       	std	Y+2, r25	; 0x02
    1d60:	89 83       	std	Y+1, r24	; 0x01
    1d62:	ae 01       	movw	r20, r28
    1d64:	49 5e       	subi	r20, 0xE9	; 233
    1d66:	5f 4f       	sbci	r21, 0xFF	; 255
    1d68:	6d 89       	ldd	r22, Y+21	; 0x15
    1d6a:	7e 89       	ldd	r23, Y+22	; 0x16
    1d6c:	ce 01       	movw	r24, r28
    1d6e:	01 96       	adiw	r24, 0x01	; 1
    1d70:	0e 94 24 12 	call	0x2448	; 0x2448 <vfscanf>
    1d74:	2e 96       	adiw	r28, 0x0e	; 14
    1d76:	e2 e0       	ldi	r30, 0x02	; 2
    1d78:	0c 94 64 14 	jmp	0x28c8	; 0x28c8 <__epilogue_restores__+0x20>

00001d7c <vfprintf>:
    1d7c:	ab e0       	ldi	r26, 0x0B	; 11
    1d7e:	b0 e0       	ldi	r27, 0x00	; 0
    1d80:	e4 ec       	ldi	r30, 0xC4	; 196
    1d82:	fe e0       	ldi	r31, 0x0E	; 14
    1d84:	0c 94 38 14 	jmp	0x2870	; 0x2870 <__prologue_saves__>
    1d88:	7c 01       	movw	r14, r24
    1d8a:	3b 01       	movw	r6, r22
    1d8c:	8a 01       	movw	r16, r20
    1d8e:	fc 01       	movw	r30, r24
    1d90:	17 82       	std	Z+7, r1	; 0x07
    1d92:	16 82       	std	Z+6, r1	; 0x06
    1d94:	83 81       	ldd	r24, Z+3	; 0x03
    1d96:	81 ff       	sbrs	r24, 1
    1d98:	c8 c1       	rjmp	.+912    	; 0x212a <vfprintf+0x3ae>
    1d9a:	ce 01       	movw	r24, r28
    1d9c:	01 96       	adiw	r24, 0x01	; 1
    1d9e:	5c 01       	movw	r10, r24
    1da0:	f7 01       	movw	r30, r14
    1da2:	93 81       	ldd	r25, Z+3	; 0x03
    1da4:	f3 01       	movw	r30, r6
    1da6:	93 fd       	sbrc	r25, 3
    1da8:	85 91       	lpm	r24, Z+
    1daa:	93 ff       	sbrs	r25, 3
    1dac:	81 91       	ld	r24, Z+
    1dae:	3f 01       	movw	r6, r30
    1db0:	88 23       	and	r24, r24
    1db2:	09 f4       	brne	.+2      	; 0x1db6 <vfprintf+0x3a>
    1db4:	53 c1       	rjmp	.+678    	; 0x205c <vfprintf+0x2e0>
    1db6:	85 32       	cpi	r24, 0x25	; 37
    1db8:	39 f4       	brne	.+14     	; 0x1dc8 <vfprintf+0x4c>
    1dba:	93 fd       	sbrc	r25, 3
    1dbc:	85 91       	lpm	r24, Z+
    1dbe:	93 ff       	sbrs	r25, 3
    1dc0:	81 91       	ld	r24, Z+
    1dc2:	3f 01       	movw	r6, r30
    1dc4:	85 32       	cpi	r24, 0x25	; 37
    1dc6:	29 f4       	brne	.+10     	; 0x1dd2 <vfprintf+0x56>
    1dc8:	b7 01       	movw	r22, r14
    1dca:	90 e0       	ldi	r25, 0x00	; 0
    1dcc:	0e 94 8f 13 	call	0x271e	; 0x271e <fputc>
    1dd0:	e7 cf       	rjmp	.-50     	; 0x1da0 <vfprintf+0x24>
    1dd2:	91 2c       	mov	r9, r1
    1dd4:	21 2c       	mov	r2, r1
    1dd6:	31 2c       	mov	r3, r1
    1dd8:	ff e1       	ldi	r31, 0x1F	; 31
    1dda:	f3 15       	cp	r31, r3
    1ddc:	38 f0       	brcs	.+14     	; 0x1dec <vfprintf+0x70>
    1dde:	8b 32       	cpi	r24, 0x2B	; 43
    1de0:	11 f1       	breq	.+68     	; 0x1e26 <vfprintf+0xaa>
    1de2:	90 f4       	brcc	.+36     	; 0x1e08 <vfprintf+0x8c>
    1de4:	80 32       	cpi	r24, 0x20	; 32
    1de6:	09 f1       	breq	.+66     	; 0x1e2a <vfprintf+0xae>
    1de8:	83 32       	cpi	r24, 0x23	; 35
    1dea:	29 f1       	breq	.+74     	; 0x1e36 <vfprintf+0xba>
    1dec:	37 fc       	sbrc	r3, 7
    1dee:	3c c0       	rjmp	.+120    	; 0x1e68 <vfprintf+0xec>
    1df0:	20 ed       	ldi	r18, 0xD0	; 208
    1df2:	28 0f       	add	r18, r24
    1df4:	2a 30       	cpi	r18, 0x0A	; 10
    1df6:	50 f5       	brcc	.+84     	; 0x1e4c <vfprintf+0xd0>
    1df8:	36 fe       	sbrs	r3, 6
    1dfa:	20 c0       	rjmp	.+64     	; 0x1e3c <vfprintf+0xc0>
    1dfc:	8a e0       	ldi	r24, 0x0A	; 10
    1dfe:	98 9e       	mul	r9, r24
    1e00:	20 0d       	add	r18, r0
    1e02:	11 24       	eor	r1, r1
    1e04:	92 2e       	mov	r9, r18
    1e06:	06 c0       	rjmp	.+12     	; 0x1e14 <vfprintf+0x98>
    1e08:	8d 32       	cpi	r24, 0x2D	; 45
    1e0a:	91 f0       	breq	.+36     	; 0x1e30 <vfprintf+0xb4>
    1e0c:	80 33       	cpi	r24, 0x30	; 48
    1e0e:	71 f7       	brne	.-36     	; 0x1dec <vfprintf+0x70>
    1e10:	68 94       	set
    1e12:	30 f8       	bld	r3, 0
    1e14:	f3 01       	movw	r30, r6
    1e16:	93 fd       	sbrc	r25, 3
    1e18:	85 91       	lpm	r24, Z+
    1e1a:	93 ff       	sbrs	r25, 3
    1e1c:	81 91       	ld	r24, Z+
    1e1e:	3f 01       	movw	r6, r30
    1e20:	81 11       	cpse	r24, r1
    1e22:	da cf       	rjmp	.-76     	; 0x1dd8 <vfprintf+0x5c>
    1e24:	21 c0       	rjmp	.+66     	; 0x1e68 <vfprintf+0xec>
    1e26:	68 94       	set
    1e28:	31 f8       	bld	r3, 1
    1e2a:	68 94       	set
    1e2c:	32 f8       	bld	r3, 2
    1e2e:	f2 cf       	rjmp	.-28     	; 0x1e14 <vfprintf+0x98>
    1e30:	68 94       	set
    1e32:	33 f8       	bld	r3, 3
    1e34:	ef cf       	rjmp	.-34     	; 0x1e14 <vfprintf+0x98>
    1e36:	68 94       	set
    1e38:	34 f8       	bld	r3, 4
    1e3a:	ec cf       	rjmp	.-40     	; 0x1e14 <vfprintf+0x98>
    1e3c:	ea e0       	ldi	r30, 0x0A	; 10
    1e3e:	2e 9e       	mul	r2, r30
    1e40:	20 0d       	add	r18, r0
    1e42:	11 24       	eor	r1, r1
    1e44:	22 2e       	mov	r2, r18
    1e46:	68 94       	set
    1e48:	35 f8       	bld	r3, 5
    1e4a:	e4 cf       	rjmp	.-56     	; 0x1e14 <vfprintf+0x98>
    1e4c:	8e 32       	cpi	r24, 0x2E	; 46
    1e4e:	29 f4       	brne	.+10     	; 0x1e5a <vfprintf+0xde>
    1e50:	36 fc       	sbrc	r3, 6
    1e52:	04 c1       	rjmp	.+520    	; 0x205c <vfprintf+0x2e0>
    1e54:	68 94       	set
    1e56:	36 f8       	bld	r3, 6
    1e58:	dd cf       	rjmp	.-70     	; 0x1e14 <vfprintf+0x98>
    1e5a:	8c 36       	cpi	r24, 0x6C	; 108
    1e5c:	19 f4       	brne	.+6      	; 0x1e64 <vfprintf+0xe8>
    1e5e:	68 94       	set
    1e60:	37 f8       	bld	r3, 7
    1e62:	d8 cf       	rjmp	.-80     	; 0x1e14 <vfprintf+0x98>
    1e64:	88 36       	cpi	r24, 0x68	; 104
    1e66:	b1 f2       	breq	.-84     	; 0x1e14 <vfprintf+0x98>
    1e68:	98 2f       	mov	r25, r24
    1e6a:	9f 7d       	andi	r25, 0xDF	; 223
    1e6c:	95 54       	subi	r25, 0x45	; 69
    1e6e:	93 30       	cpi	r25, 0x03	; 3
    1e70:	e0 f0       	brcs	.+56     	; 0x1eaa <vfprintf+0x12e>
    1e72:	83 36       	cpi	r24, 0x63	; 99
    1e74:	a1 f1       	breq	.+104    	; 0x1ede <vfprintf+0x162>
    1e76:	83 37       	cpi	r24, 0x73	; 115
    1e78:	c1 f1       	breq	.+112    	; 0x1eea <vfprintf+0x16e>
    1e7a:	83 35       	cpi	r24, 0x53	; 83
    1e7c:	09 f0       	breq	.+2      	; 0x1e80 <vfprintf+0x104>
    1e7e:	63 c0       	rjmp	.+198    	; 0x1f46 <vfprintf+0x1ca>
    1e80:	28 01       	movw	r4, r16
    1e82:	f2 e0       	ldi	r31, 0x02	; 2
    1e84:	4f 0e       	add	r4, r31
    1e86:	51 1c       	adc	r5, r1
    1e88:	f8 01       	movw	r30, r16
    1e8a:	c0 80       	ld	r12, Z
    1e8c:	d1 80       	ldd	r13, Z+1	; 0x01
    1e8e:	69 2d       	mov	r22, r9
    1e90:	70 e0       	ldi	r23, 0x00	; 0
    1e92:	36 fc       	sbrc	r3, 6
    1e94:	02 c0       	rjmp	.+4      	; 0x1e9a <vfprintf+0x11e>
    1e96:	6f ef       	ldi	r22, 0xFF	; 255
    1e98:	7f ef       	ldi	r23, 0xFF	; 255
    1e9a:	c6 01       	movw	r24, r12
    1e9c:	0e 94 3d 13 	call	0x267a	; 0x267a <strnlen_P>
    1ea0:	4c 01       	movw	r8, r24
    1ea2:	68 94       	set
    1ea4:	37 f8       	bld	r3, 7
    1ea6:	82 01       	movw	r16, r4
    1ea8:	0a c0       	rjmp	.+20     	; 0x1ebe <vfprintf+0x142>
    1eaa:	0c 5f       	subi	r16, 0xFC	; 252
    1eac:	1f 4f       	sbci	r17, 0xFF	; 255
    1eae:	ff e3       	ldi	r31, 0x3F	; 63
    1eb0:	f9 83       	std	Y+1, r31	; 0x01
    1eb2:	88 24       	eor	r8, r8
    1eb4:	83 94       	inc	r8
    1eb6:	91 2c       	mov	r9, r1
    1eb8:	65 01       	movw	r12, r10
    1eba:	e8 94       	clt
    1ebc:	37 f8       	bld	r3, 7
    1ebe:	33 fe       	sbrs	r3, 3
    1ec0:	2d c0       	rjmp	.+90     	; 0x1f1c <vfprintf+0x1a0>
    1ec2:	52 2c       	mov	r5, r2
    1ec4:	81 14       	cp	r8, r1
    1ec6:	91 04       	cpc	r9, r1
    1ec8:	71 f5       	brne	.+92     	; 0x1f26 <vfprintf+0x1aa>
    1eca:	55 20       	and	r5, r5
    1ecc:	09 f4       	brne	.+2      	; 0x1ed0 <vfprintf+0x154>
    1ece:	68 cf       	rjmp	.-304    	; 0x1da0 <vfprintf+0x24>
    1ed0:	b7 01       	movw	r22, r14
    1ed2:	80 e2       	ldi	r24, 0x20	; 32
    1ed4:	90 e0       	ldi	r25, 0x00	; 0
    1ed6:	0e 94 8f 13 	call	0x271e	; 0x271e <fputc>
    1eda:	5a 94       	dec	r5
    1edc:	f6 cf       	rjmp	.-20     	; 0x1eca <vfprintf+0x14e>
    1ede:	f8 01       	movw	r30, r16
    1ee0:	80 81       	ld	r24, Z
    1ee2:	89 83       	std	Y+1, r24	; 0x01
    1ee4:	0e 5f       	subi	r16, 0xFE	; 254
    1ee6:	1f 4f       	sbci	r17, 0xFF	; 255
    1ee8:	e4 cf       	rjmp	.-56     	; 0x1eb2 <vfprintf+0x136>
    1eea:	28 01       	movw	r4, r16
    1eec:	f2 e0       	ldi	r31, 0x02	; 2
    1eee:	4f 0e       	add	r4, r31
    1ef0:	51 1c       	adc	r5, r1
    1ef2:	f8 01       	movw	r30, r16
    1ef4:	c0 80       	ld	r12, Z
    1ef6:	d1 80       	ldd	r13, Z+1	; 0x01
    1ef8:	69 2d       	mov	r22, r9
    1efa:	70 e0       	ldi	r23, 0x00	; 0
    1efc:	36 fc       	sbrc	r3, 6
    1efe:	02 c0       	rjmp	.+4      	; 0x1f04 <vfprintf+0x188>
    1f00:	6f ef       	ldi	r22, 0xFF	; 255
    1f02:	7f ef       	ldi	r23, 0xFF	; 255
    1f04:	c6 01       	movw	r24, r12
    1f06:	0e 94 48 13 	call	0x2690	; 0x2690 <strnlen>
    1f0a:	4c 01       	movw	r8, r24
    1f0c:	82 01       	movw	r16, r4
    1f0e:	d5 cf       	rjmp	.-86     	; 0x1eba <vfprintf+0x13e>
    1f10:	b7 01       	movw	r22, r14
    1f12:	80 e2       	ldi	r24, 0x20	; 32
    1f14:	90 e0       	ldi	r25, 0x00	; 0
    1f16:	0e 94 8f 13 	call	0x271e	; 0x271e <fputc>
    1f1a:	2a 94       	dec	r2
    1f1c:	28 14       	cp	r2, r8
    1f1e:	19 04       	cpc	r1, r9
    1f20:	09 f0       	breq	.+2      	; 0x1f24 <vfprintf+0x1a8>
    1f22:	b0 f7       	brcc	.-20     	; 0x1f10 <vfprintf+0x194>
    1f24:	ce cf       	rjmp	.-100    	; 0x1ec2 <vfprintf+0x146>
    1f26:	f6 01       	movw	r30, r12
    1f28:	37 fc       	sbrc	r3, 7
    1f2a:	85 91       	lpm	r24, Z+
    1f2c:	37 fe       	sbrs	r3, 7
    1f2e:	81 91       	ld	r24, Z+
    1f30:	6f 01       	movw	r12, r30
    1f32:	b7 01       	movw	r22, r14
    1f34:	90 e0       	ldi	r25, 0x00	; 0
    1f36:	0e 94 8f 13 	call	0x271e	; 0x271e <fputc>
    1f3a:	51 10       	cpse	r5, r1
    1f3c:	5a 94       	dec	r5
    1f3e:	f1 e0       	ldi	r31, 0x01	; 1
    1f40:	8f 1a       	sub	r8, r31
    1f42:	91 08       	sbc	r9, r1
    1f44:	bf cf       	rjmp	.-130    	; 0x1ec4 <vfprintf+0x148>
    1f46:	84 36       	cpi	r24, 0x64	; 100
    1f48:	19 f0       	breq	.+6      	; 0x1f50 <vfprintf+0x1d4>
    1f4a:	89 36       	cpi	r24, 0x69	; 105
    1f4c:	09 f0       	breq	.+2      	; 0x1f50 <vfprintf+0x1d4>
    1f4e:	77 c0       	rjmp	.+238    	; 0x203e <vfprintf+0x2c2>
    1f50:	f8 01       	movw	r30, r16
    1f52:	37 fe       	sbrs	r3, 7
    1f54:	6b c0       	rjmp	.+214    	; 0x202c <vfprintf+0x2b0>
    1f56:	60 81       	ld	r22, Z
    1f58:	71 81       	ldd	r23, Z+1	; 0x01
    1f5a:	82 81       	ldd	r24, Z+2	; 0x02
    1f5c:	93 81       	ldd	r25, Z+3	; 0x03
    1f5e:	0c 5f       	subi	r16, 0xFC	; 252
    1f60:	1f 4f       	sbci	r17, 0xFF	; 255
    1f62:	f3 2d       	mov	r31, r3
    1f64:	ff 76       	andi	r31, 0x6F	; 111
    1f66:	3f 2e       	mov	r3, r31
    1f68:	97 ff       	sbrs	r25, 7
    1f6a:	09 c0       	rjmp	.+18     	; 0x1f7e <vfprintf+0x202>
    1f6c:	90 95       	com	r25
    1f6e:	80 95       	com	r24
    1f70:	70 95       	com	r23
    1f72:	61 95       	neg	r22
    1f74:	7f 4f       	sbci	r23, 0xFF	; 255
    1f76:	8f 4f       	sbci	r24, 0xFF	; 255
    1f78:	9f 4f       	sbci	r25, 0xFF	; 255
    1f7a:	68 94       	set
    1f7c:	37 f8       	bld	r3, 7
    1f7e:	2a e0       	ldi	r18, 0x0A	; 10
    1f80:	30 e0       	ldi	r19, 0x00	; 0
    1f82:	a5 01       	movw	r20, r10
    1f84:	0e 94 d7 13 	call	0x27ae	; 0x27ae <__ultoa_invert>
    1f88:	c8 2e       	mov	r12, r24
    1f8a:	ca 18       	sub	r12, r10
    1f8c:	8c 2c       	mov	r8, r12
    1f8e:	43 2c       	mov	r4, r3
    1f90:	36 fe       	sbrs	r3, 6
    1f92:	0c c0       	rjmp	.+24     	; 0x1fac <vfprintf+0x230>
    1f94:	e8 94       	clt
    1f96:	40 f8       	bld	r4, 0
    1f98:	c9 14       	cp	r12, r9
    1f9a:	40 f4       	brcc	.+16     	; 0x1fac <vfprintf+0x230>
    1f9c:	34 fe       	sbrs	r3, 4
    1f9e:	05 c0       	rjmp	.+10     	; 0x1faa <vfprintf+0x22e>
    1fa0:	32 fc       	sbrc	r3, 2
    1fa2:	03 c0       	rjmp	.+6      	; 0x1faa <vfprintf+0x22e>
    1fa4:	f3 2d       	mov	r31, r3
    1fa6:	fe 7e       	andi	r31, 0xEE	; 238
    1fa8:	4f 2e       	mov	r4, r31
    1faa:	89 2c       	mov	r8, r9
    1fac:	44 fe       	sbrs	r4, 4
    1fae:	95 c0       	rjmp	.+298    	; 0x20da <vfprintf+0x35e>
    1fb0:	fe 01       	movw	r30, r28
    1fb2:	ec 0d       	add	r30, r12
    1fb4:	f1 1d       	adc	r31, r1
    1fb6:	80 81       	ld	r24, Z
    1fb8:	80 33       	cpi	r24, 0x30	; 48
    1fba:	09 f0       	breq	.+2      	; 0x1fbe <vfprintf+0x242>
    1fbc:	87 c0       	rjmp	.+270    	; 0x20cc <vfprintf+0x350>
    1fbe:	24 2d       	mov	r18, r4
    1fc0:	29 7e       	andi	r18, 0xE9	; 233
    1fc2:	42 2e       	mov	r4, r18
    1fc4:	84 2d       	mov	r24, r4
    1fc6:	88 70       	andi	r24, 0x08	; 8
    1fc8:	58 2e       	mov	r5, r24
    1fca:	43 fc       	sbrc	r4, 3
    1fcc:	95 c0       	rjmp	.+298    	; 0x20f8 <vfprintf+0x37c>
    1fce:	40 fe       	sbrs	r4, 0
    1fd0:	8f c0       	rjmp	.+286    	; 0x20f0 <vfprintf+0x374>
    1fd2:	9c 2c       	mov	r9, r12
    1fd4:	82 14       	cp	r8, r2
    1fd6:	18 f4       	brcc	.+6      	; 0x1fde <vfprintf+0x262>
    1fd8:	2c 0c       	add	r2, r12
    1fda:	92 2c       	mov	r9, r2
    1fdc:	98 18       	sub	r9, r8
    1fde:	44 fe       	sbrs	r4, 4
    1fe0:	91 c0       	rjmp	.+290    	; 0x2104 <vfprintf+0x388>
    1fe2:	b7 01       	movw	r22, r14
    1fe4:	80 e3       	ldi	r24, 0x30	; 48
    1fe6:	90 e0       	ldi	r25, 0x00	; 0
    1fe8:	0e 94 8f 13 	call	0x271e	; 0x271e <fputc>
    1fec:	42 fe       	sbrs	r4, 2
    1fee:	09 c0       	rjmp	.+18     	; 0x2002 <vfprintf+0x286>
    1ff0:	88 e7       	ldi	r24, 0x78	; 120
    1ff2:	90 e0       	ldi	r25, 0x00	; 0
    1ff4:	41 fe       	sbrs	r4, 1
    1ff6:	02 c0       	rjmp	.+4      	; 0x1ffc <vfprintf+0x280>
    1ff8:	88 e5       	ldi	r24, 0x58	; 88
    1ffa:	90 e0       	ldi	r25, 0x00	; 0
    1ffc:	b7 01       	movw	r22, r14
    1ffe:	0e 94 8f 13 	call	0x271e	; 0x271e <fputc>
    2002:	c9 14       	cp	r12, r9
    2004:	08 f4       	brcc	.+2      	; 0x2008 <vfprintf+0x28c>
    2006:	8a c0       	rjmp	.+276    	; 0x211c <vfprintf+0x3a0>
    2008:	ca 94       	dec	r12
    200a:	d1 2c       	mov	r13, r1
    200c:	9f ef       	ldi	r25, 0xFF	; 255
    200e:	c9 1a       	sub	r12, r25
    2010:	d9 0a       	sbc	r13, r25
    2012:	ca 0c       	add	r12, r10
    2014:	db 1c       	adc	r13, r11
    2016:	f6 01       	movw	r30, r12
    2018:	82 91       	ld	r24, -Z
    201a:	6f 01       	movw	r12, r30
    201c:	b7 01       	movw	r22, r14
    201e:	90 e0       	ldi	r25, 0x00	; 0
    2020:	0e 94 8f 13 	call	0x271e	; 0x271e <fputc>
    2024:	ac 14       	cp	r10, r12
    2026:	bd 04       	cpc	r11, r13
    2028:	b1 f7       	brne	.-20     	; 0x2016 <vfprintf+0x29a>
    202a:	4f cf       	rjmp	.-354    	; 0x1eca <vfprintf+0x14e>
    202c:	60 81       	ld	r22, Z
    202e:	71 81       	ldd	r23, Z+1	; 0x01
    2030:	07 2e       	mov	r0, r23
    2032:	00 0c       	add	r0, r0
    2034:	88 0b       	sbc	r24, r24
    2036:	99 0b       	sbc	r25, r25
    2038:	0e 5f       	subi	r16, 0xFE	; 254
    203a:	1f 4f       	sbci	r17, 0xFF	; 255
    203c:	92 cf       	rjmp	.-220    	; 0x1f62 <vfprintf+0x1e6>
    203e:	d3 2c       	mov	r13, r3
    2040:	e8 94       	clt
    2042:	d4 f8       	bld	r13, 4
    2044:	2a e0       	ldi	r18, 0x0A	; 10
    2046:	30 e0       	ldi	r19, 0x00	; 0
    2048:	85 37       	cpi	r24, 0x75	; 117
    204a:	39 f1       	breq	.+78     	; 0x209a <vfprintf+0x31e>
    204c:	23 2d       	mov	r18, r3
    204e:	29 7f       	andi	r18, 0xF9	; 249
    2050:	d2 2e       	mov	r13, r18
    2052:	8f 36       	cpi	r24, 0x6F	; 111
    2054:	01 f1       	breq	.+64     	; 0x2096 <vfprintf+0x31a>
    2056:	48 f4       	brcc	.+18     	; 0x206a <vfprintf+0x2ee>
    2058:	88 35       	cpi	r24, 0x58	; 88
    205a:	a9 f0       	breq	.+42     	; 0x2086 <vfprintf+0x30a>
    205c:	f7 01       	movw	r30, r14
    205e:	86 81       	ldd	r24, Z+6	; 0x06
    2060:	97 81       	ldd	r25, Z+7	; 0x07
    2062:	2b 96       	adiw	r28, 0x0b	; 11
    2064:	e2 e1       	ldi	r30, 0x12	; 18
    2066:	0c 94 54 14 	jmp	0x28a8	; 0x28a8 <__epilogue_restores__>
    206a:	80 37       	cpi	r24, 0x70	; 112
    206c:	49 f0       	breq	.+18     	; 0x2080 <vfprintf+0x304>
    206e:	88 37       	cpi	r24, 0x78	; 120
    2070:	a9 f7       	brne	.-22     	; 0x205c <vfprintf+0x2e0>
    2072:	d4 fe       	sbrs	r13, 4
    2074:	02 c0       	rjmp	.+4      	; 0x207a <vfprintf+0x2fe>
    2076:	68 94       	set
    2078:	d2 f8       	bld	r13, 2
    207a:	20 e1       	ldi	r18, 0x10	; 16
    207c:	30 e0       	ldi	r19, 0x00	; 0
    207e:	0d c0       	rjmp	.+26     	; 0x209a <vfprintf+0x31e>
    2080:	68 94       	set
    2082:	d4 f8       	bld	r13, 4
    2084:	f6 cf       	rjmp	.-20     	; 0x2072 <vfprintf+0x2f6>
    2086:	34 fe       	sbrs	r3, 4
    2088:	03 c0       	rjmp	.+6      	; 0x2090 <vfprintf+0x314>
    208a:	82 2f       	mov	r24, r18
    208c:	86 60       	ori	r24, 0x06	; 6
    208e:	d8 2e       	mov	r13, r24
    2090:	20 e1       	ldi	r18, 0x10	; 16
    2092:	32 e0       	ldi	r19, 0x02	; 2
    2094:	02 c0       	rjmp	.+4      	; 0x209a <vfprintf+0x31e>
    2096:	28 e0       	ldi	r18, 0x08	; 8
    2098:	30 e0       	ldi	r19, 0x00	; 0
    209a:	f8 01       	movw	r30, r16
    209c:	d7 fe       	sbrs	r13, 7
    209e:	0f c0       	rjmp	.+30     	; 0x20be <vfprintf+0x342>
    20a0:	60 81       	ld	r22, Z
    20a2:	71 81       	ldd	r23, Z+1	; 0x01
    20a4:	82 81       	ldd	r24, Z+2	; 0x02
    20a6:	93 81       	ldd	r25, Z+3	; 0x03
    20a8:	0c 5f       	subi	r16, 0xFC	; 252
    20aa:	1f 4f       	sbci	r17, 0xFF	; 255
    20ac:	a5 01       	movw	r20, r10
    20ae:	0e 94 d7 13 	call	0x27ae	; 0x27ae <__ultoa_invert>
    20b2:	c8 2e       	mov	r12, r24
    20b4:	ca 18       	sub	r12, r10
    20b6:	3d 2c       	mov	r3, r13
    20b8:	e8 94       	clt
    20ba:	37 f8       	bld	r3, 7
    20bc:	67 cf       	rjmp	.-306    	; 0x1f8c <vfprintf+0x210>
    20be:	60 81       	ld	r22, Z
    20c0:	71 81       	ldd	r23, Z+1	; 0x01
    20c2:	90 e0       	ldi	r25, 0x00	; 0
    20c4:	80 e0       	ldi	r24, 0x00	; 0
    20c6:	0e 5f       	subi	r16, 0xFE	; 254
    20c8:	1f 4f       	sbci	r17, 0xFF	; 255
    20ca:	f0 cf       	rjmp	.-32     	; 0x20ac <vfprintf+0x330>
    20cc:	42 fc       	sbrc	r4, 2
    20ce:	02 c0       	rjmp	.+4      	; 0x20d4 <vfprintf+0x358>
    20d0:	83 94       	inc	r8
    20d2:	78 cf       	rjmp	.-272    	; 0x1fc4 <vfprintf+0x248>
    20d4:	83 94       	inc	r8
    20d6:	83 94       	inc	r8
    20d8:	75 cf       	rjmp	.-278    	; 0x1fc4 <vfprintf+0x248>
    20da:	84 2d       	mov	r24, r4
    20dc:	86 78       	andi	r24, 0x86	; 134
    20de:	09 f4       	brne	.+2      	; 0x20e2 <vfprintf+0x366>
    20e0:	71 cf       	rjmp	.-286    	; 0x1fc4 <vfprintf+0x248>
    20e2:	f6 cf       	rjmp	.-20     	; 0x20d0 <vfprintf+0x354>
    20e4:	b7 01       	movw	r22, r14
    20e6:	80 e2       	ldi	r24, 0x20	; 32
    20e8:	90 e0       	ldi	r25, 0x00	; 0
    20ea:	0e 94 8f 13 	call	0x271e	; 0x271e <fputc>
    20ee:	83 94       	inc	r8
    20f0:	82 14       	cp	r8, r2
    20f2:	c0 f3       	brcs	.-16     	; 0x20e4 <vfprintf+0x368>
    20f4:	51 2c       	mov	r5, r1
    20f6:	73 cf       	rjmp	.-282    	; 0x1fde <vfprintf+0x262>
    20f8:	52 2c       	mov	r5, r2
    20fa:	58 18       	sub	r5, r8
    20fc:	82 14       	cp	r8, r2
    20fe:	08 f4       	brcc	.+2      	; 0x2102 <vfprintf+0x386>
    2100:	6e cf       	rjmp	.-292    	; 0x1fde <vfprintf+0x262>
    2102:	f8 cf       	rjmp	.-16     	; 0x20f4 <vfprintf+0x378>
    2104:	84 2d       	mov	r24, r4
    2106:	86 78       	andi	r24, 0x86	; 134
    2108:	09 f4       	brne	.+2      	; 0x210c <vfprintf+0x390>
    210a:	7b cf       	rjmp	.-266    	; 0x2002 <vfprintf+0x286>
    210c:	8b e2       	ldi	r24, 0x2B	; 43
    210e:	41 fe       	sbrs	r4, 1
    2110:	80 e2       	ldi	r24, 0x20	; 32
    2112:	47 fc       	sbrc	r4, 7
    2114:	8d e2       	ldi	r24, 0x2D	; 45
    2116:	b7 01       	movw	r22, r14
    2118:	90 e0       	ldi	r25, 0x00	; 0
    211a:	71 cf       	rjmp	.-286    	; 0x1ffe <vfprintf+0x282>
    211c:	b7 01       	movw	r22, r14
    211e:	80 e3       	ldi	r24, 0x30	; 48
    2120:	90 e0       	ldi	r25, 0x00	; 0
    2122:	0e 94 8f 13 	call	0x271e	; 0x271e <fputc>
    2126:	9a 94       	dec	r9
    2128:	6c cf       	rjmp	.-296    	; 0x2002 <vfprintf+0x286>
    212a:	8f ef       	ldi	r24, 0xFF	; 255
    212c:	9f ef       	ldi	r25, 0xFF	; 255
    212e:	99 cf       	rjmp	.-206    	; 0x2062 <vfprintf+0x2e6>

00002130 <putval>:
    2130:	20 fd       	sbrc	r18, 0
    2132:	09 c0       	rjmp	.+18     	; 0x2146 <putval+0x16>
    2134:	fc 01       	movw	r30, r24
    2136:	23 fd       	sbrc	r18, 3
    2138:	05 c0       	rjmp	.+10     	; 0x2144 <putval+0x14>
    213a:	22 ff       	sbrs	r18, 2
    213c:	02 c0       	rjmp	.+4      	; 0x2142 <putval+0x12>
    213e:	73 83       	std	Z+3, r23	; 0x03
    2140:	62 83       	std	Z+2, r22	; 0x02
    2142:	51 83       	std	Z+1, r21	; 0x01
    2144:	40 83       	st	Z, r20
    2146:	08 95       	ret

00002148 <mulacc>:
    2148:	44 fd       	sbrc	r20, 4
    214a:	17 c0       	rjmp	.+46     	; 0x217a <mulacc+0x32>
    214c:	46 fd       	sbrc	r20, 6
    214e:	1d c0       	rjmp	.+58     	; 0x218a <mulacc+0x42>
    2150:	db 01       	movw	r26, r22
    2152:	fc 01       	movw	r30, r24
    2154:	aa 0f       	add	r26, r26
    2156:	bb 1f       	adc	r27, r27
    2158:	ee 1f       	adc	r30, r30
    215a:	ff 1f       	adc	r31, r31
    215c:	10 94       	com	r1
    215e:	d1 f7       	brne	.-12     	; 0x2154 <mulacc+0xc>
    2160:	6a 0f       	add	r22, r26
    2162:	7b 1f       	adc	r23, r27
    2164:	8e 1f       	adc	r24, r30
    2166:	9f 1f       	adc	r25, r31
    2168:	66 0f       	add	r22, r22
    216a:	77 1f       	adc	r23, r23
    216c:	88 1f       	adc	r24, r24
    216e:	99 1f       	adc	r25, r25
    2170:	62 0f       	add	r22, r18
    2172:	71 1d       	adc	r23, r1
    2174:	81 1d       	adc	r24, r1
    2176:	91 1d       	adc	r25, r1
    2178:	08 95       	ret
    217a:	33 e0       	ldi	r19, 0x03	; 3
    217c:	66 0f       	add	r22, r22
    217e:	77 1f       	adc	r23, r23
    2180:	88 1f       	adc	r24, r24
    2182:	99 1f       	adc	r25, r25
    2184:	31 50       	subi	r19, 0x01	; 1
    2186:	d1 f7       	brne	.-12     	; 0x217c <mulacc+0x34>
    2188:	f3 cf       	rjmp	.-26     	; 0x2170 <mulacc+0x28>
    218a:	34 e0       	ldi	r19, 0x04	; 4
    218c:	f7 cf       	rjmp	.-18     	; 0x217c <mulacc+0x34>

0000218e <skip_spaces>:
    218e:	0f 93       	push	r16
    2190:	1f 93       	push	r17
    2192:	cf 93       	push	r28
    2194:	df 93       	push	r29
    2196:	8c 01       	movw	r16, r24
    2198:	c8 01       	movw	r24, r16
    219a:	0e 94 53 13 	call	0x26a6	; 0x26a6 <fgetc>
    219e:	ec 01       	movw	r28, r24
    21a0:	97 fd       	sbrc	r25, 7
    21a2:	08 c0       	rjmp	.+16     	; 0x21b4 <skip_spaces+0x26>
    21a4:	0e 94 29 13 	call	0x2652	; 0x2652 <isspace>
    21a8:	89 2b       	or	r24, r25
    21aa:	b1 f7       	brne	.-20     	; 0x2198 <skip_spaces+0xa>
    21ac:	b8 01       	movw	r22, r16
    21ae:	ce 01       	movw	r24, r28
    21b0:	0e 94 bf 13 	call	0x277e	; 0x277e <ungetc>
    21b4:	ce 01       	movw	r24, r28
    21b6:	df 91       	pop	r29
    21b8:	cf 91       	pop	r28
    21ba:	1f 91       	pop	r17
    21bc:	0f 91       	pop	r16
    21be:	08 95       	ret

000021c0 <conv_int>:
    21c0:	8f 92       	push	r8
    21c2:	9f 92       	push	r9
    21c4:	af 92       	push	r10
    21c6:	bf 92       	push	r11
    21c8:	ef 92       	push	r14
    21ca:	ff 92       	push	r15
    21cc:	0f 93       	push	r16
    21ce:	1f 93       	push	r17
    21d0:	cf 93       	push	r28
    21d2:	df 93       	push	r29
    21d4:	8c 01       	movw	r16, r24
    21d6:	d6 2f       	mov	r29, r22
    21d8:	7a 01       	movw	r14, r20
    21da:	b2 2e       	mov	r11, r18
    21dc:	0e 94 53 13 	call	0x26a6	; 0x26a6 <fgetc>
    21e0:	9c 01       	movw	r18, r24
    21e2:	33 27       	eor	r19, r19
    21e4:	2b 32       	cpi	r18, 0x2B	; 43
    21e6:	31 05       	cpc	r19, r1
    21e8:	29 f0       	breq	.+10     	; 0x21f4 <conv_int+0x34>
    21ea:	2d 32       	cpi	r18, 0x2D	; 45
    21ec:	31 05       	cpc	r19, r1
    21ee:	a9 f4       	brne	.+42     	; 0x221a <conv_int+0x5a>
    21f0:	68 94       	set
    21f2:	b7 f8       	bld	r11, 7
    21f4:	d1 50       	subi	r29, 0x01	; 1
    21f6:	61 f4       	brne	.+24     	; 0x2210 <conv_int+0x50>
    21f8:	80 e0       	ldi	r24, 0x00	; 0
    21fa:	df 91       	pop	r29
    21fc:	cf 91       	pop	r28
    21fe:	1f 91       	pop	r17
    2200:	0f 91       	pop	r16
    2202:	ff 90       	pop	r15
    2204:	ef 90       	pop	r14
    2206:	bf 90       	pop	r11
    2208:	af 90       	pop	r10
    220a:	9f 90       	pop	r9
    220c:	8f 90       	pop	r8
    220e:	08 95       	ret
    2210:	c8 01       	movw	r24, r16
    2212:	0e 94 53 13 	call	0x26a6	; 0x26a6 <fgetc>
    2216:	97 fd       	sbrc	r25, 7
    2218:	ef cf       	rjmp	.-34     	; 0x21f8 <conv_int+0x38>
    221a:	cb 2d       	mov	r28, r11
    221c:	cd 7f       	andi	r28, 0xFD	; 253
    221e:	2b 2d       	mov	r18, r11
    2220:	20 73       	andi	r18, 0x30	; 48
    2222:	f9 f4       	brne	.+62     	; 0x2262 <conv_int+0xa2>
    2224:	80 33       	cpi	r24, 0x30	; 48
    2226:	e9 f4       	brne	.+58     	; 0x2262 <conv_int+0xa2>
    2228:	aa 24       	eor	r10, r10
    222a:	aa 94       	dec	r10
    222c:	ad 0e       	add	r10, r29
    222e:	89 f0       	breq	.+34     	; 0x2252 <conv_int+0x92>
    2230:	c8 01       	movw	r24, r16
    2232:	0e 94 53 13 	call	0x26a6	; 0x26a6 <fgetc>
    2236:	97 fd       	sbrc	r25, 7
    2238:	0c c0       	rjmp	.+24     	; 0x2252 <conv_int+0x92>
    223a:	28 2f       	mov	r18, r24
    223c:	2f 7d       	andi	r18, 0xDF	; 223
    223e:	28 35       	cpi	r18, 0x58	; 88
    2240:	61 f4       	brne	.+24     	; 0x225a <conv_int+0x9a>
    2242:	c2 64       	ori	r28, 0x42	; 66
    2244:	d2 50       	subi	r29, 0x02	; 2
    2246:	29 f0       	breq	.+10     	; 0x2252 <conv_int+0x92>
    2248:	c8 01       	movw	r24, r16
    224a:	0e 94 53 13 	call	0x26a6	; 0x26a6 <fgetc>
    224e:	97 ff       	sbrs	r25, 7
    2250:	08 c0       	rjmp	.+16     	; 0x2262 <conv_int+0xa2>
    2252:	81 2c       	mov	r8, r1
    2254:	91 2c       	mov	r9, r1
    2256:	54 01       	movw	r10, r8
    2258:	1b c0       	rjmp	.+54     	; 0x2290 <conv_int+0xd0>
    225a:	b6 fe       	sbrs	r11, 6
    225c:	2b c0       	rjmp	.+86     	; 0x22b4 <conv_int+0xf4>
    225e:	c2 60       	ori	r28, 0x02	; 2
    2260:	da 2d       	mov	r29, r10
    2262:	81 2c       	mov	r8, r1
    2264:	91 2c       	mov	r9, r1
    2266:	54 01       	movw	r10, r8
    2268:	20 ed       	ldi	r18, 0xD0	; 208
    226a:	28 0f       	add	r18, r24
    226c:	28 30       	cpi	r18, 0x08	; 8
    226e:	28 f1       	brcs	.+74     	; 0x22ba <conv_int+0xfa>
    2270:	c4 fd       	sbrc	r28, 4
    2272:	09 c0       	rjmp	.+18     	; 0x2286 <conv_int+0xc6>
    2274:	2a 30       	cpi	r18, 0x0A	; 10
    2276:	08 f1       	brcs	.+66     	; 0x22ba <conv_int+0xfa>
    2278:	c6 ff       	sbrs	r28, 6
    227a:	05 c0       	rjmp	.+10     	; 0x2286 <conv_int+0xc6>
    227c:	2f 7d       	andi	r18, 0xDF	; 223
    227e:	3f ee       	ldi	r19, 0xEF	; 239
    2280:	32 0f       	add	r19, r18
    2282:	36 30       	cpi	r19, 0x06	; 6
    2284:	c8 f0       	brcs	.+50     	; 0x22b8 <conv_int+0xf8>
    2286:	b8 01       	movw	r22, r16
    2288:	0e 94 bf 13 	call	0x277e	; 0x277e <ungetc>
    228c:	c1 ff       	sbrs	r28, 1
    228e:	b4 cf       	rjmp	.-152    	; 0x21f8 <conv_int+0x38>
    2290:	c7 ff       	sbrs	r28, 7
    2292:	08 c0       	rjmp	.+16     	; 0x22a4 <conv_int+0xe4>
    2294:	b0 94       	com	r11
    2296:	a0 94       	com	r10
    2298:	90 94       	com	r9
    229a:	80 94       	com	r8
    229c:	81 1c       	adc	r8, r1
    229e:	91 1c       	adc	r9, r1
    22a0:	a1 1c       	adc	r10, r1
    22a2:	b1 1c       	adc	r11, r1
    22a4:	2c 2f       	mov	r18, r28
    22a6:	b5 01       	movw	r22, r10
    22a8:	a4 01       	movw	r20, r8
    22aa:	c7 01       	movw	r24, r14
    22ac:	0e 94 98 10 	call	0x2130	; 0x2130 <putval>
    22b0:	81 e0       	ldi	r24, 0x01	; 1
    22b2:	a3 cf       	rjmp	.-186    	; 0x21fa <conv_int+0x3a>
    22b4:	c2 61       	ori	r28, 0x12	; 18
    22b6:	d4 cf       	rjmp	.-88     	; 0x2260 <conv_int+0xa0>
    22b8:	27 50       	subi	r18, 0x07	; 7
    22ba:	4c 2f       	mov	r20, r28
    22bc:	c5 01       	movw	r24, r10
    22be:	b4 01       	movw	r22, r8
    22c0:	0e 94 a4 10 	call	0x2148	; 0x2148 <mulacc>
    22c4:	4b 01       	movw	r8, r22
    22c6:	5c 01       	movw	r10, r24
    22c8:	c2 60       	ori	r28, 0x02	; 2
    22ca:	d1 50       	subi	r29, 0x01	; 1
    22cc:	09 f3       	breq	.-62     	; 0x2290 <conv_int+0xd0>
    22ce:	c8 01       	movw	r24, r16
    22d0:	0e 94 53 13 	call	0x26a6	; 0x26a6 <fgetc>
    22d4:	97 ff       	sbrs	r25, 7
    22d6:	c8 cf       	rjmp	.-112    	; 0x2268 <conv_int+0xa8>
    22d8:	d9 cf       	rjmp	.-78     	; 0x228c <conv_int+0xcc>

000022da <conv_brk>:
    22da:	a0 e2       	ldi	r26, 0x20	; 32
    22dc:	b0 e0       	ldi	r27, 0x00	; 0
    22de:	e3 e7       	ldi	r30, 0x73	; 115
    22e0:	f1 e1       	ldi	r31, 0x11	; 17
    22e2:	0c 94 3d 14 	jmp	0x287a	; 0x287a <__prologue_saves__+0xa>
    22e6:	5c 01       	movw	r10, r24
    22e8:	96 2e       	mov	r9, r22
    22ea:	7a 01       	movw	r14, r20
    22ec:	ce 01       	movw	r24, r28
    22ee:	01 96       	adiw	r24, 0x01	; 1
    22f0:	6c 01       	movw	r12, r24
    22f2:	80 e2       	ldi	r24, 0x20	; 32
    22f4:	f6 01       	movw	r30, r12
    22f6:	11 92       	st	Z+, r1
    22f8:	8a 95       	dec	r24
    22fa:	e9 f7       	brne	.-6      	; 0x22f6 <conv_brk+0x1c>
    22fc:	f5 01       	movw	r30, r10
    22fe:	b3 81       	ldd	r27, Z+3	; 0x03
    2300:	89 01       	movw	r16, r18
    2302:	30 e0       	ldi	r19, 0x00	; 0
    2304:	20 e0       	ldi	r18, 0x00	; 0
    2306:	71 2c       	mov	r7, r1
    2308:	81 2c       	mov	r8, r1
    230a:	a0 e0       	ldi	r26, 0x00	; 0
    230c:	41 e0       	ldi	r20, 0x01	; 1
    230e:	50 e0       	ldi	r21, 0x00	; 0
    2310:	f8 01       	movw	r30, r16
    2312:	b3 fd       	sbrc	r27, 3
    2314:	85 91       	lpm	r24, Z+
    2316:	b3 ff       	sbrs	r27, 3
    2318:	81 91       	ld	r24, Z+
    231a:	98 2f       	mov	r25, r24
    231c:	8f 01       	movw	r16, r30
    231e:	81 11       	cpse	r24, r1
    2320:	07 c0       	rjmp	.+14     	; 0x2330 <conv_brk+0x56>
    2322:	10 e0       	ldi	r17, 0x00	; 0
    2324:	00 e0       	ldi	r16, 0x00	; 0
    2326:	c8 01       	movw	r24, r16
    2328:	a0 96       	adiw	r28, 0x20	; 32
    232a:	ed e0       	ldi	r30, 0x0D	; 13
    232c:	0c 94 59 14 	jmp	0x28b2	; 0x28b2 <__epilogue_restores__+0xa>
    2330:	8e 35       	cpi	r24, 0x5E	; 94
    2332:	19 f4       	brne	.+6      	; 0x233a <conv_brk+0x60>
    2334:	21 15       	cp	r18, r1
    2336:	31 05       	cpc	r19, r1
    2338:	41 f1       	breq	.+80     	; 0x238a <conv_brk+0xb0>
    233a:	a2 17       	cp	r26, r18
    233c:	13 06       	cpc	r1, r19
    233e:	4c f4       	brge	.+18     	; 0x2352 <conv_brk+0x78>
    2340:	8d 35       	cpi	r24, 0x5D	; 93
    2342:	49 f1       	breq	.+82     	; 0x2396 <conv_brk+0xbc>
    2344:	8d 32       	cpi	r24, 0x2D	; 45
    2346:	29 f4       	brne	.+10     	; 0x2352 <conv_brk+0x78>
    2348:	81 10       	cpse	r8, r1
    234a:	06 c0       	rjmp	.+12     	; 0x2358 <conv_brk+0x7e>
    234c:	88 24       	eor	r8, r8
    234e:	83 94       	inc	r8
    2350:	1d c0       	rjmp	.+58     	; 0x238c <conv_brk+0xb2>
    2352:	88 20       	and	r8, r8
    2354:	09 f4       	brne	.+2      	; 0x2358 <conv_brk+0x7e>
    2356:	65 c0       	rjmp	.+202    	; 0x2422 <conv_brk+0x148>
    2358:	e9 2f       	mov	r30, r25
    235a:	e6 95       	lsr	r30
    235c:	e6 95       	lsr	r30
    235e:	e6 95       	lsr	r30
    2360:	ec 0d       	add	r30, r12
    2362:	fd 2d       	mov	r31, r13
    2364:	f1 1d       	adc	r31, r1
    2366:	89 2f       	mov	r24, r25
    2368:	87 70       	andi	r24, 0x07	; 7
    236a:	ba 01       	movw	r22, r20
    236c:	01 c0       	rjmp	.+2      	; 0x2370 <conv_brk+0x96>
    236e:	66 0f       	add	r22, r22
    2370:	8a 95       	dec	r24
    2372:	ea f7       	brpl	.-6      	; 0x236e <conv_brk+0x94>
    2374:	80 81       	ld	r24, Z
    2376:	68 2b       	or	r22, r24
    2378:	60 83       	st	Z, r22
    237a:	79 16       	cp	r7, r25
    237c:	51 f0       	breq	.+20     	; 0x2392 <conv_brk+0xb8>
    237e:	97 15       	cp	r25, r7
    2380:	10 f4       	brcc	.+4      	; 0x2386 <conv_brk+0xac>
    2382:	9f 5f       	subi	r25, 0xFF	; 255
    2384:	e9 cf       	rjmp	.-46     	; 0x2358 <conv_brk+0x7e>
    2386:	91 50       	subi	r25, 0x01	; 1
    2388:	e7 cf       	rjmp	.-50     	; 0x2358 <conv_brk+0x7e>
    238a:	a1 e0       	ldi	r26, 0x01	; 1
    238c:	2f 5f       	subi	r18, 0xFF	; 255
    238e:	3f 4f       	sbci	r19, 0xFF	; 255
    2390:	bf cf       	rjmp	.-130    	; 0x2310 <conv_brk+0x36>
    2392:	81 2c       	mov	r8, r1
    2394:	fb cf       	rjmp	.-10     	; 0x238c <conv_brk+0xb2>
    2396:	88 20       	and	r8, r8
    2398:	19 f0       	breq	.+6      	; 0x23a0 <conv_brk+0xc6>
    239a:	8e 81       	ldd	r24, Y+6	; 0x06
    239c:	80 62       	ori	r24, 0x20	; 32
    239e:	8e 83       	std	Y+6, r24	; 0x06
    23a0:	a1 11       	cpse	r26, r1
    23a2:	20 c0       	rjmp	.+64     	; 0x23e4 <conv_brk+0x10a>
    23a4:	88 24       	eor	r8, r8
    23a6:	83 94       	inc	r8
    23a8:	c5 01       	movw	r24, r10
    23aa:	0e 94 53 13 	call	0x26a6	; 0x26a6 <fgetc>
    23ae:	97 fd       	sbrc	r25, 7
    23b0:	16 c0       	rjmp	.+44     	; 0x23de <conv_brk+0x104>
    23b2:	e8 2f       	mov	r30, r24
    23b4:	e6 95       	lsr	r30
    23b6:	e6 95       	lsr	r30
    23b8:	e6 95       	lsr	r30
    23ba:	ec 0d       	add	r30, r12
    23bc:	fd 2d       	mov	r31, r13
    23be:	f1 1d       	adc	r31, r1
    23c0:	20 81       	ld	r18, Z
    23c2:	30 e0       	ldi	r19, 0x00	; 0
    23c4:	ac 01       	movw	r20, r24
    23c6:	47 70       	andi	r20, 0x07	; 7
    23c8:	55 27       	eor	r21, r21
    23ca:	02 c0       	rjmp	.+4      	; 0x23d0 <conv_brk+0xf6>
    23cc:	35 95       	asr	r19
    23ce:	27 95       	ror	r18
    23d0:	4a 95       	dec	r20
    23d2:	e2 f7       	brpl	.-8      	; 0x23cc <conv_brk+0xf2>
    23d4:	20 fd       	sbrc	r18, 0
    23d6:	12 c0       	rjmp	.+36     	; 0x23fc <conv_brk+0x122>
    23d8:	b5 01       	movw	r22, r10
    23da:	0e 94 bf 13 	call	0x277e	; 0x277e <ungetc>
    23de:	88 20       	and	r8, r8
    23e0:	c9 f0       	breq	.+50     	; 0x2414 <conv_brk+0x13a>
    23e2:	9f cf       	rjmp	.-194    	; 0x2322 <conv_brk+0x48>
    23e4:	f6 01       	movw	r30, r12
    23e6:	9e 01       	movw	r18, r28
    23e8:	2f 5d       	subi	r18, 0xDF	; 223
    23ea:	3f 4f       	sbci	r19, 0xFF	; 255
    23ec:	80 81       	ld	r24, Z
    23ee:	80 95       	com	r24
    23f0:	80 83       	st	Z, r24
    23f2:	31 96       	adiw	r30, 0x01	; 1
    23f4:	e2 17       	cp	r30, r18
    23f6:	f3 07       	cpc	r31, r19
    23f8:	c9 f7       	brne	.-14     	; 0x23ec <conv_brk+0x112>
    23fa:	d4 cf       	rjmp	.-88     	; 0x23a4 <conv_brk+0xca>
    23fc:	e1 14       	cp	r14, r1
    23fe:	f1 04       	cpc	r15, r1
    2400:	29 f0       	breq	.+10     	; 0x240c <conv_brk+0x132>
    2402:	f7 01       	movw	r30, r14
    2404:	80 83       	st	Z, r24
    2406:	c7 01       	movw	r24, r14
    2408:	01 96       	adiw	r24, 0x01	; 1
    240a:	7c 01       	movw	r14, r24
    240c:	9a 94       	dec	r9
    240e:	81 2c       	mov	r8, r1
    2410:	91 10       	cpse	r9, r1
    2412:	ca cf       	rjmp	.-108    	; 0x23a8 <conv_brk+0xce>
    2414:	e1 14       	cp	r14, r1
    2416:	f1 04       	cpc	r15, r1
    2418:	09 f4       	brne	.+2      	; 0x241c <conv_brk+0x142>
    241a:	85 cf       	rjmp	.-246    	; 0x2326 <conv_brk+0x4c>
    241c:	f7 01       	movw	r30, r14
    241e:	10 82       	st	Z, r1
    2420:	82 cf       	rjmp	.-252    	; 0x2326 <conv_brk+0x4c>
    2422:	e8 2f       	mov	r30, r24
    2424:	e6 95       	lsr	r30
    2426:	e6 95       	lsr	r30
    2428:	e6 95       	lsr	r30
    242a:	ec 0d       	add	r30, r12
    242c:	fd 2d       	mov	r31, r13
    242e:	f1 1d       	adc	r31, r1
    2430:	98 2f       	mov	r25, r24
    2432:	97 70       	andi	r25, 0x07	; 7
    2434:	ba 01       	movw	r22, r20
    2436:	01 c0       	rjmp	.+2      	; 0x243a <conv_brk+0x160>
    2438:	66 0f       	add	r22, r22
    243a:	9a 95       	dec	r25
    243c:	ea f7       	brpl	.-6      	; 0x2438 <conv_brk+0x15e>
    243e:	90 81       	ld	r25, Z
    2440:	69 2b       	or	r22, r25
    2442:	60 83       	st	Z, r22
    2444:	78 2e       	mov	r7, r24
    2446:	a2 cf       	rjmp	.-188    	; 0x238c <conv_brk+0xb2>

00002448 <vfscanf>:
    2448:	b0 e0       	ldi	r27, 0x00	; 0
    244a:	a0 e0       	ldi	r26, 0x00	; 0
    244c:	ea e2       	ldi	r30, 0x2A	; 42
    244e:	f2 e1       	ldi	r31, 0x12	; 18
    2450:	0c 94 3b 14 	jmp	0x2876	; 0x2876 <__prologue_saves__+0x6>
    2454:	6c 01       	movw	r12, r24
    2456:	eb 01       	movw	r28, r22
    2458:	5a 01       	movw	r10, r20
    245a:	fc 01       	movw	r30, r24
    245c:	17 82       	std	Z+7, r1	; 0x07
    245e:	16 82       	std	Z+6, r1	; 0x06
    2460:	51 2c       	mov	r5, r1
    2462:	f6 01       	movw	r30, r12
    2464:	e3 80       	ldd	r14, Z+3	; 0x03
    2466:	fe 01       	movw	r30, r28
    2468:	e3 fc       	sbrc	r14, 3
    246a:	85 91       	lpm	r24, Z+
    246c:	e3 fe       	sbrs	r14, 3
    246e:	81 91       	ld	r24, Z+
    2470:	18 2f       	mov	r17, r24
    2472:	ef 01       	movw	r28, r30
    2474:	88 23       	and	r24, r24
    2476:	e9 f0       	breq	.+58     	; 0x24b2 <vfscanf+0x6a>
    2478:	90 e0       	ldi	r25, 0x00	; 0
    247a:	0e 94 29 13 	call	0x2652	; 0x2652 <isspace>
    247e:	89 2b       	or	r24, r25
    2480:	21 f0       	breq	.+8      	; 0x248a <vfscanf+0x42>
    2482:	c6 01       	movw	r24, r12
    2484:	0e 94 c7 10 	call	0x218e	; 0x218e <skip_spaces>
    2488:	ec cf       	rjmp	.-40     	; 0x2462 <vfscanf+0x1a>
    248a:	15 32       	cpi	r17, 0x25	; 37
    248c:	41 f4       	brne	.+16     	; 0x249e <vfscanf+0x56>
    248e:	fe 01       	movw	r30, r28
    2490:	e3 fc       	sbrc	r14, 3
    2492:	15 91       	lpm	r17, Z+
    2494:	e3 fe       	sbrs	r14, 3
    2496:	11 91       	ld	r17, Z+
    2498:	ef 01       	movw	r28, r30
    249a:	15 32       	cpi	r17, 0x25	; 37
    249c:	69 f4       	brne	.+26     	; 0x24b8 <vfscanf+0x70>
    249e:	c6 01       	movw	r24, r12
    24a0:	0e 94 53 13 	call	0x26a6	; 0x26a6 <fgetc>
    24a4:	97 fd       	sbrc	r25, 7
    24a6:	8e c0       	rjmp	.+284    	; 0x25c4 <vfscanf+0x17c>
    24a8:	18 17       	cp	r17, r24
    24aa:	d9 f2       	breq	.-74     	; 0x2462 <vfscanf+0x1a>
    24ac:	b6 01       	movw	r22, r12
    24ae:	0e 94 bf 13 	call	0x277e	; 0x277e <ungetc>
    24b2:	85 2d       	mov	r24, r5
    24b4:	90 e0       	ldi	r25, 0x00	; 0
    24b6:	8a c0       	rjmp	.+276    	; 0x25cc <vfscanf+0x184>
    24b8:	00 e0       	ldi	r16, 0x00	; 0
    24ba:	1a 32       	cpi	r17, 0x2A	; 42
    24bc:	31 f4       	brne	.+12     	; 0x24ca <vfscanf+0x82>
    24be:	e3 fc       	sbrc	r14, 3
    24c0:	15 91       	lpm	r17, Z+
    24c2:	e3 fe       	sbrs	r14, 3
    24c4:	11 91       	ld	r17, Z+
    24c6:	ef 01       	movw	r28, r30
    24c8:	01 e0       	ldi	r16, 0x01	; 1
    24ca:	f1 2c       	mov	r15, r1
    24cc:	20 ed       	ldi	r18, 0xD0	; 208
    24ce:	21 0f       	add	r18, r17
    24d0:	2a 30       	cpi	r18, 0x0A	; 10
    24d2:	48 f1       	brcs	.+82     	; 0x2526 <vfscanf+0xde>
    24d4:	01 ff       	sbrs	r16, 1
    24d6:	37 c0       	rjmp	.+110    	; 0x2546 <vfscanf+0xfe>
    24d8:	ff 20       	and	r15, r15
    24da:	59 f3       	breq	.-42     	; 0x24b2 <vfscanf+0x6a>
    24dc:	18 36       	cpi	r17, 0x68	; 104
    24de:	b1 f1       	breq	.+108    	; 0x254c <vfscanf+0x104>
    24e0:	1c 36       	cpi	r17, 0x6C	; 108
    24e2:	09 f4       	brne	.+2      	; 0x24e6 <vfscanf+0x9e>
    24e4:	3d c0       	rjmp	.+122    	; 0x2560 <vfscanf+0x118>
    24e6:	11 23       	and	r17, r17
    24e8:	21 f3       	breq	.-56     	; 0x24b2 <vfscanf+0x6a>
    24ea:	61 2f       	mov	r22, r17
    24ec:	70 e0       	ldi	r23, 0x00	; 0
    24ee:	88 e6       	ldi	r24, 0x68	; 104
    24f0:	90 e0       	ldi	r25, 0x00	; 0
    24f2:	0e 94 32 13 	call	0x2664	; 0x2664 <strchr_P>
    24f6:	89 2b       	or	r24, r25
    24f8:	e1 f2       	breq	.-72     	; 0x24b2 <vfscanf+0x6a>
    24fa:	91 2c       	mov	r9, r1
    24fc:	81 2c       	mov	r8, r1
    24fe:	00 fd       	sbrc	r16, 0
    2500:	06 c0       	rjmp	.+12     	; 0x250e <vfscanf+0xc6>
    2502:	f5 01       	movw	r30, r10
    2504:	80 80       	ld	r8, Z
    2506:	91 80       	ldd	r9, Z+1	; 0x01
    2508:	c5 01       	movw	r24, r10
    250a:	02 96       	adiw	r24, 0x02	; 2
    250c:	5c 01       	movw	r10, r24
    250e:	1e 36       	cpi	r17, 0x6E	; 110
    2510:	79 f5       	brne	.+94     	; 0x2570 <vfscanf+0x128>
    2512:	f6 01       	movw	r30, r12
    2514:	46 81       	ldd	r20, Z+6	; 0x06
    2516:	57 81       	ldd	r21, Z+7	; 0x07
    2518:	70 e0       	ldi	r23, 0x00	; 0
    251a:	60 e0       	ldi	r22, 0x00	; 0
    251c:	20 2f       	mov	r18, r16
    251e:	c4 01       	movw	r24, r8
    2520:	0e 94 98 10 	call	0x2130	; 0x2130 <putval>
    2524:	9e cf       	rjmp	.-196    	; 0x2462 <vfscanf+0x1a>
    2526:	02 60       	ori	r16, 0x02	; 2
    2528:	6f 2d       	mov	r22, r15
    252a:	70 e0       	ldi	r23, 0x00	; 0
    252c:	90 e0       	ldi	r25, 0x00	; 0
    252e:	80 e0       	ldi	r24, 0x00	; 0
    2530:	40 e2       	ldi	r20, 0x20	; 32
    2532:	0e 94 a4 10 	call	0x2148	; 0x2148 <mulacc>
    2536:	f6 2e       	mov	r15, r22
    2538:	fe 01       	movw	r30, r28
    253a:	e3 fc       	sbrc	r14, 3
    253c:	15 91       	lpm	r17, Z+
    253e:	e3 fe       	sbrs	r14, 3
    2540:	11 91       	ld	r17, Z+
    2542:	ef 01       	movw	r28, r30
    2544:	c3 cf       	rjmp	.-122    	; 0x24cc <vfscanf+0x84>
    2546:	ff 24       	eor	r15, r15
    2548:	fa 94       	dec	r15
    254a:	c8 cf       	rjmp	.-112    	; 0x24dc <vfscanf+0x94>
    254c:	fe 01       	movw	r30, r28
    254e:	e3 fc       	sbrc	r14, 3
    2550:	15 91       	lpm	r17, Z+
    2552:	e3 fe       	sbrs	r14, 3
    2554:	11 91       	ld	r17, Z+
    2556:	ef 01       	movw	r28, r30
    2558:	18 36       	cpi	r17, 0x68	; 104
    255a:	09 f0       	breq	.+2      	; 0x255e <vfscanf+0x116>
    255c:	c4 cf       	rjmp	.-120    	; 0x24e6 <vfscanf+0x9e>
    255e:	08 60       	ori	r16, 0x08	; 8
    2560:	04 60       	ori	r16, 0x04	; 4
    2562:	fe 01       	movw	r30, r28
    2564:	e3 fc       	sbrc	r14, 3
    2566:	15 91       	lpm	r17, Z+
    2568:	e3 fe       	sbrs	r14, 3
    256a:	11 91       	ld	r17, Z+
    256c:	ef 01       	movw	r28, r30
    256e:	bb cf       	rjmp	.-138    	; 0x24e6 <vfscanf+0x9e>
    2570:	13 36       	cpi	r17, 0x63	; 99
    2572:	c1 f4       	brne	.+48     	; 0x25a4 <vfscanf+0x15c>
    2574:	01 fd       	sbrc	r16, 1
    2576:	02 c0       	rjmp	.+4      	; 0x257c <vfscanf+0x134>
    2578:	ff 24       	eor	r15, r15
    257a:	f3 94       	inc	r15
    257c:	c6 01       	movw	r24, r12
    257e:	0e 94 53 13 	call	0x26a6	; 0x26a6 <fgetc>
    2582:	97 fd       	sbrc	r25, 7
    2584:	1f c0       	rjmp	.+62     	; 0x25c4 <vfscanf+0x17c>
    2586:	81 14       	cp	r8, r1
    2588:	91 04       	cpc	r9, r1
    258a:	29 f0       	breq	.+10     	; 0x2596 <vfscanf+0x14e>
    258c:	f4 01       	movw	r30, r8
    258e:	80 83       	st	Z, r24
    2590:	c4 01       	movw	r24, r8
    2592:	01 96       	adiw	r24, 0x01	; 1
    2594:	4c 01       	movw	r8, r24
    2596:	fa 94       	dec	r15
    2598:	f1 10       	cpse	r15, r1
    259a:	f0 cf       	rjmp	.-32     	; 0x257c <vfscanf+0x134>
    259c:	00 fd       	sbrc	r16, 0
    259e:	61 cf       	rjmp	.-318    	; 0x2462 <vfscanf+0x1a>
    25a0:	53 94       	inc	r5
    25a2:	5f cf       	rjmp	.-322    	; 0x2462 <vfscanf+0x1a>
    25a4:	1b 35       	cpi	r17, 0x5B	; 91
    25a6:	b9 f4       	brne	.+46     	; 0x25d6 <vfscanf+0x18e>
    25a8:	9e 01       	movw	r18, r28
    25aa:	a4 01       	movw	r20, r8
    25ac:	6f 2d       	mov	r22, r15
    25ae:	c6 01       	movw	r24, r12
    25b0:	0e 94 6d 11 	call	0x22da	; 0x22da <conv_brk>
    25b4:	ec 01       	movw	r28, r24
    25b6:	89 2b       	or	r24, r25
    25b8:	89 f7       	brne	.-30     	; 0x259c <vfscanf+0x154>
    25ba:	f6 01       	movw	r30, r12
    25bc:	83 81       	ldd	r24, Z+3	; 0x03
    25be:	80 73       	andi	r24, 0x30	; 48
    25c0:	09 f4       	brne	.+2      	; 0x25c4 <vfscanf+0x17c>
    25c2:	77 cf       	rjmp	.-274    	; 0x24b2 <vfscanf+0x6a>
    25c4:	8f ef       	ldi	r24, 0xFF	; 255
    25c6:	9f ef       	ldi	r25, 0xFF	; 255
    25c8:	51 10       	cpse	r5, r1
    25ca:	73 cf       	rjmp	.-282    	; 0x24b2 <vfscanf+0x6a>
    25cc:	cd b7       	in	r28, 0x3d	; 61
    25ce:	de b7       	in	r29, 0x3e	; 62
    25d0:	ef e0       	ldi	r30, 0x0F	; 15
    25d2:	0c 94 57 14 	jmp	0x28ae	; 0x28ae <__epilogue_restores__+0x6>
    25d6:	c6 01       	movw	r24, r12
    25d8:	0e 94 c7 10 	call	0x218e	; 0x218e <skip_spaces>
    25dc:	97 fd       	sbrc	r25, 7
    25de:	f2 cf       	rjmp	.-28     	; 0x25c4 <vfscanf+0x17c>
    25e0:	1f 36       	cpi	r17, 0x6F	; 111
    25e2:	a9 f1       	breq	.+106    	; 0x264e <vfscanf+0x206>
    25e4:	30 f4       	brcc	.+12     	; 0x25f2 <vfscanf+0x1aa>
    25e6:	14 36       	cpi	r17, 0x64	; 100
    25e8:	41 f0       	breq	.+16     	; 0x25fa <vfscanf+0x1b2>
    25ea:	19 36       	cpi	r17, 0x69	; 105
    25ec:	39 f0       	breq	.+14     	; 0x25fc <vfscanf+0x1b4>
    25ee:	00 64       	ori	r16, 0x40	; 64
    25f0:	05 c0       	rjmp	.+10     	; 0x25fc <vfscanf+0x1b4>
    25f2:	13 37       	cpi	r17, 0x73	; 115
    25f4:	b9 f0       	breq	.+46     	; 0x2624 <vfscanf+0x1dc>
    25f6:	15 37       	cpi	r17, 0x75	; 117
    25f8:	d1 f7       	brne	.-12     	; 0x25ee <vfscanf+0x1a6>
    25fa:	00 62       	ori	r16, 0x20	; 32
    25fc:	20 2f       	mov	r18, r16
    25fe:	a4 01       	movw	r20, r8
    2600:	6f 2d       	mov	r22, r15
    2602:	c6 01       	movw	r24, r12
    2604:	0e 94 e0 10 	call	0x21c0	; 0x21c0 <conv_int>
    2608:	81 11       	cpse	r24, r1
    260a:	c8 cf       	rjmp	.-112    	; 0x259c <vfscanf+0x154>
    260c:	d6 cf       	rjmp	.-84     	; 0x25ba <vfscanf+0x172>
    260e:	81 14       	cp	r8, r1
    2610:	91 04       	cpc	r9, r1
    2612:	29 f0       	breq	.+10     	; 0x261e <vfscanf+0x1d6>
    2614:	f4 01       	movw	r30, r8
    2616:	60 82       	st	Z, r6
    2618:	c4 01       	movw	r24, r8
    261a:	01 96       	adiw	r24, 0x01	; 1
    261c:	4c 01       	movw	r8, r24
    261e:	fa 94       	dec	r15
    2620:	ff 20       	and	r15, r15
    2622:	71 f0       	breq	.+28     	; 0x2640 <vfscanf+0x1f8>
    2624:	c6 01       	movw	r24, r12
    2626:	0e 94 53 13 	call	0x26a6	; 0x26a6 <fgetc>
    262a:	3c 01       	movw	r6, r24
    262c:	97 fd       	sbrc	r25, 7
    262e:	08 c0       	rjmp	.+16     	; 0x2640 <vfscanf+0x1f8>
    2630:	0e 94 29 13 	call	0x2652	; 0x2652 <isspace>
    2634:	89 2b       	or	r24, r25
    2636:	59 f3       	breq	.-42     	; 0x260e <vfscanf+0x1c6>
    2638:	b6 01       	movw	r22, r12
    263a:	c3 01       	movw	r24, r6
    263c:	0e 94 bf 13 	call	0x277e	; 0x277e <ungetc>
    2640:	81 14       	cp	r8, r1
    2642:	91 04       	cpc	r9, r1
    2644:	09 f4       	brne	.+2      	; 0x2648 <vfscanf+0x200>
    2646:	aa cf       	rjmp	.-172    	; 0x259c <vfscanf+0x154>
    2648:	f4 01       	movw	r30, r8
    264a:	10 82       	st	Z, r1
    264c:	a7 cf       	rjmp	.-178    	; 0x259c <vfscanf+0x154>
    264e:	00 61       	ori	r16, 0x10	; 16
    2650:	d5 cf       	rjmp	.-86     	; 0x25fc <vfscanf+0x1b4>

00002652 <isspace>:
    2652:	91 11       	cpse	r25, r1
    2654:	0c 94 35 14 	jmp	0x286a	; 0x286a <__ctype_isfalse>
    2658:	80 32       	cpi	r24, 0x20	; 32
    265a:	19 f0       	breq	.+6      	; 0x2662 <isspace+0x10>
    265c:	89 50       	subi	r24, 0x09	; 9
    265e:	85 50       	subi	r24, 0x05	; 5
    2660:	c8 f7       	brcc	.-14     	; 0x2654 <isspace+0x2>
    2662:	08 95       	ret

00002664 <strchr_P>:
    2664:	fc 01       	movw	r30, r24
    2666:	05 90       	lpm	r0, Z+
    2668:	06 16       	cp	r0, r22
    266a:	21 f0       	breq	.+8      	; 0x2674 <strchr_P+0x10>
    266c:	00 20       	and	r0, r0
    266e:	d9 f7       	brne	.-10     	; 0x2666 <strchr_P+0x2>
    2670:	c0 01       	movw	r24, r0
    2672:	08 95       	ret
    2674:	31 97       	sbiw	r30, 0x01	; 1
    2676:	cf 01       	movw	r24, r30
    2678:	08 95       	ret

0000267a <strnlen_P>:
    267a:	fc 01       	movw	r30, r24
    267c:	05 90       	lpm	r0, Z+
    267e:	61 50       	subi	r22, 0x01	; 1
    2680:	70 40       	sbci	r23, 0x00	; 0
    2682:	01 10       	cpse	r0, r1
    2684:	d8 f7       	brcc	.-10     	; 0x267c <strnlen_P+0x2>
    2686:	80 95       	com	r24
    2688:	90 95       	com	r25
    268a:	8e 0f       	add	r24, r30
    268c:	9f 1f       	adc	r25, r31
    268e:	08 95       	ret

00002690 <strnlen>:
    2690:	fc 01       	movw	r30, r24
    2692:	61 50       	subi	r22, 0x01	; 1
    2694:	70 40       	sbci	r23, 0x00	; 0
    2696:	01 90       	ld	r0, Z+
    2698:	01 10       	cpse	r0, r1
    269a:	d8 f7       	brcc	.-10     	; 0x2692 <strnlen+0x2>
    269c:	80 95       	com	r24
    269e:	90 95       	com	r25
    26a0:	8e 0f       	add	r24, r30
    26a2:	9f 1f       	adc	r25, r31
    26a4:	08 95       	ret

000026a6 <fgetc>:
    26a6:	cf 93       	push	r28
    26a8:	df 93       	push	r29
    26aa:	ec 01       	movw	r28, r24
    26ac:	2b 81       	ldd	r18, Y+3	; 0x03
    26ae:	20 ff       	sbrs	r18, 0
    26b0:	1a c0       	rjmp	.+52     	; 0x26e6 <fgetc+0x40>
    26b2:	26 ff       	sbrs	r18, 6
    26b4:	0c c0       	rjmp	.+24     	; 0x26ce <fgetc+0x28>
    26b6:	2f 7b       	andi	r18, 0xBF	; 191
    26b8:	2b 83       	std	Y+3, r18	; 0x03
    26ba:	8e 81       	ldd	r24, Y+6	; 0x06
    26bc:	9f 81       	ldd	r25, Y+7	; 0x07
    26be:	01 96       	adiw	r24, 0x01	; 1
    26c0:	9f 83       	std	Y+7, r25	; 0x07
    26c2:	8e 83       	std	Y+6, r24	; 0x06
    26c4:	8a 81       	ldd	r24, Y+2	; 0x02
    26c6:	90 e0       	ldi	r25, 0x00	; 0
    26c8:	df 91       	pop	r29
    26ca:	cf 91       	pop	r28
    26cc:	08 95       	ret
    26ce:	22 ff       	sbrs	r18, 2
    26d0:	18 c0       	rjmp	.+48     	; 0x2702 <fgetc+0x5c>
    26d2:	e8 81       	ld	r30, Y
    26d4:	f9 81       	ldd	r31, Y+1	; 0x01
    26d6:	80 81       	ld	r24, Z
    26d8:	08 2e       	mov	r0, r24
    26da:	00 0c       	add	r0, r0
    26dc:	99 0b       	sbc	r25, r25
    26de:	00 97       	sbiw	r24, 0x00	; 0
    26e0:	29 f4       	brne	.+10     	; 0x26ec <fgetc+0x46>
    26e2:	20 62       	ori	r18, 0x20	; 32
    26e4:	2b 83       	std	Y+3, r18	; 0x03
    26e6:	8f ef       	ldi	r24, 0xFF	; 255
    26e8:	9f ef       	ldi	r25, 0xFF	; 255
    26ea:	ee cf       	rjmp	.-36     	; 0x26c8 <fgetc+0x22>
    26ec:	31 96       	adiw	r30, 0x01	; 1
    26ee:	f9 83       	std	Y+1, r31	; 0x01
    26f0:	e8 83       	st	Y, r30
    26f2:	2e 81       	ldd	r18, Y+6	; 0x06
    26f4:	3f 81       	ldd	r19, Y+7	; 0x07
    26f6:	2f 5f       	subi	r18, 0xFF	; 255
    26f8:	3f 4f       	sbci	r19, 0xFF	; 255
    26fa:	3f 83       	std	Y+7, r19	; 0x07
    26fc:	2e 83       	std	Y+6, r18	; 0x06
    26fe:	99 27       	eor	r25, r25
    2700:	e3 cf       	rjmp	.-58     	; 0x26c8 <fgetc+0x22>
    2702:	ea 85       	ldd	r30, Y+10	; 0x0a
    2704:	fb 85       	ldd	r31, Y+11	; 0x0b
    2706:	09 95       	icall
    2708:	97 ff       	sbrs	r25, 7
    270a:	f3 cf       	rjmp	.-26     	; 0x26f2 <fgetc+0x4c>
    270c:	2b 81       	ldd	r18, Y+3	; 0x03
    270e:	01 96       	adiw	r24, 0x01	; 1
    2710:	21 f0       	breq	.+8      	; 0x271a <fgetc+0x74>
    2712:	80 e2       	ldi	r24, 0x20	; 32
    2714:	82 2b       	or	r24, r18
    2716:	8b 83       	std	Y+3, r24	; 0x03
    2718:	e6 cf       	rjmp	.-52     	; 0x26e6 <fgetc+0x40>
    271a:	80 e1       	ldi	r24, 0x10	; 16
    271c:	fb cf       	rjmp	.-10     	; 0x2714 <fgetc+0x6e>

0000271e <fputc>:
    271e:	0f 93       	push	r16
    2720:	1f 93       	push	r17
    2722:	cf 93       	push	r28
    2724:	df 93       	push	r29
    2726:	18 2f       	mov	r17, r24
    2728:	09 2f       	mov	r16, r25
    272a:	eb 01       	movw	r28, r22
    272c:	8b 81       	ldd	r24, Y+3	; 0x03
    272e:	81 fd       	sbrc	r24, 1
    2730:	09 c0       	rjmp	.+18     	; 0x2744 <fputc+0x26>
    2732:	1f ef       	ldi	r17, 0xFF	; 255
    2734:	0f ef       	ldi	r16, 0xFF	; 255
    2736:	81 2f       	mov	r24, r17
    2738:	90 2f       	mov	r25, r16
    273a:	df 91       	pop	r29
    273c:	cf 91       	pop	r28
    273e:	1f 91       	pop	r17
    2740:	0f 91       	pop	r16
    2742:	08 95       	ret
    2744:	82 ff       	sbrs	r24, 2
    2746:	14 c0       	rjmp	.+40     	; 0x2770 <fputc+0x52>
    2748:	2e 81       	ldd	r18, Y+6	; 0x06
    274a:	3f 81       	ldd	r19, Y+7	; 0x07
    274c:	8c 81       	ldd	r24, Y+4	; 0x04
    274e:	9d 81       	ldd	r25, Y+5	; 0x05
    2750:	28 17       	cp	r18, r24
    2752:	39 07       	cpc	r19, r25
    2754:	3c f4       	brge	.+14     	; 0x2764 <fputc+0x46>
    2756:	e8 81       	ld	r30, Y
    2758:	f9 81       	ldd	r31, Y+1	; 0x01
    275a:	cf 01       	movw	r24, r30
    275c:	01 96       	adiw	r24, 0x01	; 1
    275e:	99 83       	std	Y+1, r25	; 0x01
    2760:	88 83       	st	Y, r24
    2762:	10 83       	st	Z, r17
    2764:	8e 81       	ldd	r24, Y+6	; 0x06
    2766:	9f 81       	ldd	r25, Y+7	; 0x07
    2768:	01 96       	adiw	r24, 0x01	; 1
    276a:	9f 83       	std	Y+7, r25	; 0x07
    276c:	8e 83       	std	Y+6, r24	; 0x06
    276e:	e3 cf       	rjmp	.-58     	; 0x2736 <fputc+0x18>
    2770:	e8 85       	ldd	r30, Y+8	; 0x08
    2772:	f9 85       	ldd	r31, Y+9	; 0x09
    2774:	81 2f       	mov	r24, r17
    2776:	09 95       	icall
    2778:	89 2b       	or	r24, r25
    277a:	a1 f3       	breq	.-24     	; 0x2764 <fputc+0x46>
    277c:	da cf       	rjmp	.-76     	; 0x2732 <fputc+0x14>

0000277e <ungetc>:
    277e:	fb 01       	movw	r30, r22
    2780:	23 81       	ldd	r18, Z+3	; 0x03
    2782:	20 ff       	sbrs	r18, 0
    2784:	11 c0       	rjmp	.+34     	; 0x27a8 <ungetc+0x2a>
    2786:	26 fd       	sbrc	r18, 6
    2788:	0f c0       	rjmp	.+30     	; 0x27a8 <ungetc+0x2a>
    278a:	8f 3f       	cpi	r24, 0xFF	; 255
    278c:	98 07       	cpc	r25, r24
    278e:	71 f0       	breq	.+28     	; 0x27ac <ungetc+0x2e>
    2790:	82 83       	std	Z+2, r24	; 0x02
    2792:	2f 7d       	andi	r18, 0xDF	; 223
    2794:	20 64       	ori	r18, 0x40	; 64
    2796:	23 83       	std	Z+3, r18	; 0x03
    2798:	26 81       	ldd	r18, Z+6	; 0x06
    279a:	37 81       	ldd	r19, Z+7	; 0x07
    279c:	21 50       	subi	r18, 0x01	; 1
    279e:	31 09       	sbc	r19, r1
    27a0:	37 83       	std	Z+7, r19	; 0x07
    27a2:	26 83       	std	Z+6, r18	; 0x06
    27a4:	99 27       	eor	r25, r25
    27a6:	08 95       	ret
    27a8:	8f ef       	ldi	r24, 0xFF	; 255
    27aa:	9f ef       	ldi	r25, 0xFF	; 255
    27ac:	08 95       	ret

000027ae <__ultoa_invert>:
    27ae:	fa 01       	movw	r30, r20
    27b0:	aa 27       	eor	r26, r26
    27b2:	28 30       	cpi	r18, 0x08	; 8
    27b4:	51 f1       	breq	.+84     	; 0x280a <__ultoa_invert+0x5c>
    27b6:	20 31       	cpi	r18, 0x10	; 16
    27b8:	81 f1       	breq	.+96     	; 0x281a <__ultoa_invert+0x6c>
    27ba:	e8 94       	clt
    27bc:	6f 93       	push	r22
    27be:	6e 7f       	andi	r22, 0xFE	; 254
    27c0:	6e 5f       	subi	r22, 0xFE	; 254
    27c2:	7f 4f       	sbci	r23, 0xFF	; 255
    27c4:	8f 4f       	sbci	r24, 0xFF	; 255
    27c6:	9f 4f       	sbci	r25, 0xFF	; 255
    27c8:	af 4f       	sbci	r26, 0xFF	; 255
    27ca:	b1 e0       	ldi	r27, 0x01	; 1
    27cc:	3e d0       	rcall	.+124    	; 0x284a <__ultoa_invert+0x9c>
    27ce:	b4 e0       	ldi	r27, 0x04	; 4
    27d0:	3c d0       	rcall	.+120    	; 0x284a <__ultoa_invert+0x9c>
    27d2:	67 0f       	add	r22, r23
    27d4:	78 1f       	adc	r23, r24
    27d6:	89 1f       	adc	r24, r25
    27d8:	9a 1f       	adc	r25, r26
    27da:	a1 1d       	adc	r26, r1
    27dc:	68 0f       	add	r22, r24
    27de:	79 1f       	adc	r23, r25
    27e0:	8a 1f       	adc	r24, r26
    27e2:	91 1d       	adc	r25, r1
    27e4:	a1 1d       	adc	r26, r1
    27e6:	6a 0f       	add	r22, r26
    27e8:	71 1d       	adc	r23, r1
    27ea:	81 1d       	adc	r24, r1
    27ec:	91 1d       	adc	r25, r1
    27ee:	a1 1d       	adc	r26, r1
    27f0:	20 d0       	rcall	.+64     	; 0x2832 <__ultoa_invert+0x84>
    27f2:	09 f4       	brne	.+2      	; 0x27f6 <__ultoa_invert+0x48>
    27f4:	68 94       	set
    27f6:	3f 91       	pop	r19
    27f8:	2a e0       	ldi	r18, 0x0A	; 10
    27fa:	26 9f       	mul	r18, r22
    27fc:	11 24       	eor	r1, r1
    27fe:	30 19       	sub	r19, r0
    2800:	30 5d       	subi	r19, 0xD0	; 208
    2802:	31 93       	st	Z+, r19
    2804:	de f6       	brtc	.-74     	; 0x27bc <__ultoa_invert+0xe>
    2806:	cf 01       	movw	r24, r30
    2808:	08 95       	ret
    280a:	46 2f       	mov	r20, r22
    280c:	47 70       	andi	r20, 0x07	; 7
    280e:	40 5d       	subi	r20, 0xD0	; 208
    2810:	41 93       	st	Z+, r20
    2812:	b3 e0       	ldi	r27, 0x03	; 3
    2814:	0f d0       	rcall	.+30     	; 0x2834 <__ultoa_invert+0x86>
    2816:	c9 f7       	brne	.-14     	; 0x280a <__ultoa_invert+0x5c>
    2818:	f6 cf       	rjmp	.-20     	; 0x2806 <__ultoa_invert+0x58>
    281a:	46 2f       	mov	r20, r22
    281c:	4f 70       	andi	r20, 0x0F	; 15
    281e:	40 5d       	subi	r20, 0xD0	; 208
    2820:	4a 33       	cpi	r20, 0x3A	; 58
    2822:	18 f0       	brcs	.+6      	; 0x282a <__ultoa_invert+0x7c>
    2824:	49 5d       	subi	r20, 0xD9	; 217
    2826:	31 fd       	sbrc	r19, 1
    2828:	40 52       	subi	r20, 0x20	; 32
    282a:	41 93       	st	Z+, r20
    282c:	02 d0       	rcall	.+4      	; 0x2832 <__ultoa_invert+0x84>
    282e:	a9 f7       	brne	.-22     	; 0x281a <__ultoa_invert+0x6c>
    2830:	ea cf       	rjmp	.-44     	; 0x2806 <__ultoa_invert+0x58>
    2832:	b4 e0       	ldi	r27, 0x04	; 4
    2834:	a6 95       	lsr	r26
    2836:	97 95       	ror	r25
    2838:	87 95       	ror	r24
    283a:	77 95       	ror	r23
    283c:	67 95       	ror	r22
    283e:	ba 95       	dec	r27
    2840:	c9 f7       	brne	.-14     	; 0x2834 <__ultoa_invert+0x86>
    2842:	00 97       	sbiw	r24, 0x00	; 0
    2844:	61 05       	cpc	r22, r1
    2846:	71 05       	cpc	r23, r1
    2848:	08 95       	ret
    284a:	9b 01       	movw	r18, r22
    284c:	ac 01       	movw	r20, r24
    284e:	0a 2e       	mov	r0, r26
    2850:	06 94       	lsr	r0
    2852:	57 95       	ror	r21
    2854:	47 95       	ror	r20
    2856:	37 95       	ror	r19
    2858:	27 95       	ror	r18
    285a:	ba 95       	dec	r27
    285c:	c9 f7       	brne	.-14     	; 0x2850 <__ultoa_invert+0xa2>
    285e:	62 0f       	add	r22, r18
    2860:	73 1f       	adc	r23, r19
    2862:	84 1f       	adc	r24, r20
    2864:	95 1f       	adc	r25, r21
    2866:	a0 1d       	adc	r26, r0
    2868:	08 95       	ret

0000286a <__ctype_isfalse>:
    286a:	99 27       	eor	r25, r25
    286c:	88 27       	eor	r24, r24

0000286e <__ctype_istrue>:
    286e:	08 95       	ret

00002870 <__prologue_saves__>:
    2870:	2f 92       	push	r2
    2872:	3f 92       	push	r3
    2874:	4f 92       	push	r4
    2876:	5f 92       	push	r5
    2878:	6f 92       	push	r6
    287a:	7f 92       	push	r7
    287c:	8f 92       	push	r8
    287e:	9f 92       	push	r9
    2880:	af 92       	push	r10
    2882:	bf 92       	push	r11
    2884:	cf 92       	push	r12
    2886:	df 92       	push	r13
    2888:	ef 92       	push	r14
    288a:	ff 92       	push	r15
    288c:	0f 93       	push	r16
    288e:	1f 93       	push	r17
    2890:	cf 93       	push	r28
    2892:	df 93       	push	r29
    2894:	cd b7       	in	r28, 0x3d	; 61
    2896:	de b7       	in	r29, 0x3e	; 62
    2898:	ca 1b       	sub	r28, r26
    289a:	db 0b       	sbc	r29, r27
    289c:	0f b6       	in	r0, 0x3f	; 63
    289e:	f8 94       	cli
    28a0:	de bf       	out	0x3e, r29	; 62
    28a2:	0f be       	out	0x3f, r0	; 63
    28a4:	cd bf       	out	0x3d, r28	; 61
    28a6:	09 94       	ijmp

000028a8 <__epilogue_restores__>:
    28a8:	2a 88       	ldd	r2, Y+18	; 0x12
    28aa:	39 88       	ldd	r3, Y+17	; 0x11
    28ac:	48 88       	ldd	r4, Y+16	; 0x10
    28ae:	5f 84       	ldd	r5, Y+15	; 0x0f
    28b0:	6e 84       	ldd	r6, Y+14	; 0x0e
    28b2:	7d 84       	ldd	r7, Y+13	; 0x0d
    28b4:	8c 84       	ldd	r8, Y+12	; 0x0c
    28b6:	9b 84       	ldd	r9, Y+11	; 0x0b
    28b8:	aa 84       	ldd	r10, Y+10	; 0x0a
    28ba:	b9 84       	ldd	r11, Y+9	; 0x09
    28bc:	c8 84       	ldd	r12, Y+8	; 0x08
    28be:	df 80       	ldd	r13, Y+7	; 0x07
    28c0:	ee 80       	ldd	r14, Y+6	; 0x06
    28c2:	fd 80       	ldd	r15, Y+5	; 0x05
    28c4:	0c 81       	ldd	r16, Y+4	; 0x04
    28c6:	1b 81       	ldd	r17, Y+3	; 0x03
    28c8:	aa 81       	ldd	r26, Y+2	; 0x02
    28ca:	b9 81       	ldd	r27, Y+1	; 0x01
    28cc:	ce 0f       	add	r28, r30
    28ce:	d1 1d       	adc	r29, r1
    28d0:	0f b6       	in	r0, 0x3f	; 63
    28d2:	f8 94       	cli
    28d4:	de bf       	out	0x3e, r29	; 62
    28d6:	0f be       	out	0x3f, r0	; 63
    28d8:	cd bf       	out	0x3d, r28	; 61
    28da:	ed 01       	movw	r28, r26
    28dc:	08 95       	ret

000028de <_exit>:
    28de:	f8 94       	cli

000028e0 <__stop_program>:
    28e0:	ff cf       	rjmp	.-2      	; 0x28e0 <__stop_program>
